(lp0
(S'cppflags'
p1
ccopy_reg
_reconstructor
p2
(cino.utils
SpaceList
p3
c__builtin__
list
p4
(lp5
S'-mmcu=atmega328p'
p6
aS'-DF_CPU=16000000L'
p7
aS'-DARDUINO=105'
p8
aS'-I/Applications/Arduino.app/Contents/Resources/Java/hardware/arduino/cores/arduino'
p9
aS'-ffunction-sections'
p10
aS'-fdata-sections'
p11
aS'-g'
p12
aS'-Os'
p13
aS'-w'
p14
aS'-I/Applications/Arduino.app/Contents/Resources/Java/hardware/arduino/variants/standard'
p15
aS'-I/Applications/Arduino.app/Contents/Resources/Java/hardware/arduino/cores/arduino'
p16
aS'-I/Applications/Arduino.app/Contents/Resources/Java/hardware/arduino/cores/arduino/avr-libc'
p17
atp18
Rp19
tp20
a(S'cxx'
p21
S'/Applications/Arduino.app/Contents/Resources/Java/hardware/tools/avr/bin/avr-g++'
p22
tp23
a(S'version.txt'
p24
S'/Applications/Arduino.app/Contents/Resources/Java/lib/version.txt'
p25
tp26
a(S'used_libs'
p27
(lp28
S'/Applications/Arduino.app/Contents/Resources/Java/hardware/arduino/cores/arduino'
p29
atp30
a(S'cc'
p31
S'/Applications/Arduino.app/Contents/Resources/Java/hardware/tools/avr/bin/avr-gcc'
p32
tp33
a(S'make'
p34
S'/Applications/Arduino.app/Contents/Resources/Java/hardware/tools/avr/bin/make'
p35
tp36
a(S'cflags'
p37
g2
(g3
g4
(lp38
tp39
Rp40
tp41
a(S'build_dir'
p42
S'.build/uno'
p43
tp44
a(S'arduino_core_dir'
p45
g29
tp46
a(S'boards.txt'
p47
S'/Applications/Arduino.app/Contents/Resources/Java/hardware/arduino/boards.txt'
p48
tp49
a(S'cxxflags'
p50
g2
(g3
g4
(lp51
S'-fno-exceptions'
p52
atp53
Rp54
tp55
a(S'arduino_variants_dir'
p56
S'/Applications/Arduino.app/Contents/Resources/Java/hardware/arduino/variants'
p57
tp58
a(S'ar'
p59
S'/Applications/Arduino.app/Contents/Resources/Java/hardware/tools/avr/bin/avr-ar'
p60
tp61
a(S'names'
p62
(dp63
S'cpp'
p64
S'%s.cpp'
p65
sS'obj'
p66
S'%s.o'
p67
sS'deps'
p68
S'%s.d'
p69
sS'lib'
p70
S'lib%s.a'
p71
stp72
a(S'deps'
p73
g2
(g3
g4
(lp74
S'.build/uno/src/dependencies.d'
p75
aS'.build/uno/arduino/dependencies.d'
p76
atp77
Rp78
tp79
a(S'arduino_libraries_dir'
p80
S'/Applications/Arduino.app/Contents/Resources/Java/libraries'
p81
tp82
a(S'arduino_lib_version'
p83
g2
(cino.environment
Version
p84
c__builtin__
tuple
p85
(I1
I0
I5
tp86
tp87
Rp88
tp89
a(S'objcopy'
p90
S'/Applications/Arduino.app/Contents/Resources/Java/hardware/tools/avr/bin/avr-objcopy'
p91
tp92
a(S'board_models'
p93
cino.environment
BoardModels
p94
((lp95
(lp96
S'uno'
p97
a(dp98
S'build'
p99
(dp100
S'core'
p101
S'arduino'
p102
sS'mcu'
p103
S'atmega328p'
p104
sS'f_cpu'
p105
S'16000000L'
p106
sS'variant'
p107
S'standard'
p108
ssS'bootloader'
p109
(dp110
S'extended_fuses'
p111
S'0x05'
p112
sS'high_fuses'
p113
S'0xde'
p114
sS'low_fuses'
p115
S'0xff'
p116
sS'lock_bits'
p117
S'0x0F'
p118
sS'file'
p119
S'optiboot_atmega328.hex'
p120
sS'path'
p121
S'optiboot'
p122
sS'unlock_bits'
p123
S'0x3F'
p124
ssS'upload'
p125
(dp126
S'protocol'
p127
S'arduino'
p128
sS'maximum_size'
p129
S'32256'
p130
sS'speed'
p131
S'115200'
p132
ssS'name'
p133
S'Arduino Uno'
p134
saa(lp135
S'atmega328'
p136
a(dp137
S'build'
p138
(dp139
S'core'
p140
S'arduino'
p141
sS'mcu'
p142
S'atmega328p'
p143
sS'f_cpu'
p144
S'16000000L'
p145
sS'variant'
p146
S'standard'
p147
ssS'bootloader'
p148
(dp149
S'extended_fuses'
p150
S'0x05'
p151
sS'high_fuses'
p152
S'0xDA'
p153
sS'low_fuses'
p154
S'0xFF'
p155
sS'lock_bits'
p156
S'0x0F'
p157
sS'file'
p158
S'ATmegaBOOT_168_atmega328.hex'
p159
sS'path'
p160
S'atmega'
p161
sS'unlock_bits'
p162
S'0x3F'
p163
ssS'upload'
p164
(dp165
S'protocol'
p166
S'arduino'
p167
sS'maximum_size'
p168
S'30720'
p169
sS'speed'
p170
S'57600'
p171
ssS'name'
p172
S'Arduino Duemilanove w/ ATmega328'
p173
saa(lp174
S'diecimila'
p175
a(dp176
S'build'
p177
(dp178
S'core'
p179
S'arduino'
p180
sS'mcu'
p181
S'atmega168'
p182
sS'f_cpu'
p183
S'16000000L'
p184
sS'variant'
p185
S'standard'
p186
ssS'bootloader'
p187
(dp188
S'extended_fuses'
p189
S'0x00'
p190
sS'high_fuses'
p191
S'0xdd'
p192
sS'low_fuses'
p193
S'0xff'
p194
sS'lock_bits'
p195
S'0x0F'
p196
sS'file'
p197
S'ATmegaBOOT_168_diecimila.hex'
p198
sS'path'
p199
S'atmega'
p200
sS'unlock_bits'
p201
S'0x3F'
p202
ssS'upload'
p203
(dp204
S'protocol'
p205
S'arduino'
p206
sS'maximum_size'
p207
S'14336'
p208
sS'speed'
p209
S'19200'
p210
ssS'name'
p211
S'Arduino Diecimila or Duemilanove w/ ATmega168'
p212
saa(lp213
S'nano328'
p214
a(dp215
S'build'
p216
(dp217
S'core'
p218
S'arduino'
p219
sS'mcu'
p220
S'atmega328p'
p221
sS'f_cpu'
p222
S'16000000L'
p223
sS'variant'
p224
S'eightanaloginputs'
p225
ssS'bootloader'
p226
(dp227
S'extended_fuses'
p228
S'0x05'
p229
sS'high_fuses'
p230
S'0xDA'
p231
sS'low_fuses'
p232
S'0xFF'
p233
sS'lock_bits'
p234
S'0x0F'
p235
sS'file'
p236
S'ATmegaBOOT_168_atmega328.hex'
p237
sS'path'
p238
S'atmega'
p239
sS'unlock_bits'
p240
S'0x3F'
p241
ssS'upload'
p242
(dp243
S'protocol'
p244
S'arduino'
p245
sS'maximum_size'
p246
S'30720'
p247
sS'speed'
p248
S'57600'
p249
ssS'name'
p250
S'Arduino Nano w/ ATmega328'
p251
saa(lp252
S'nano'
p253
a(dp254
S'build'
p255
(dp256
S'core'
p257
S'arduino'
p258
sS'mcu'
p259
S'atmega168'
p260
sS'f_cpu'
p261
S'16000000L'
p262
sS'variant'
p263
S'eightanaloginputs'
p264
ssS'bootloader'
p265
(dp266
S'extended_fuses'
p267
S'0x00'
p268
sS'high_fuses'
p269
S'0xdd'
p270
sS'low_fuses'
p271
S'0xff'
p272
sS'lock_bits'
p273
S'0x0F'
p274
sS'file'
p275
S'ATmegaBOOT_168_diecimila.hex'
p276
sS'path'
p277
S'atmega'
p278
sS'unlock_bits'
p279
S'0x3F'
p280
ssS'upload'
p281
(dp282
S'protocol'
p283
S'arduino'
p284
sS'maximum_size'
p285
S'14336'
p286
sS'speed'
p287
S'19200'
p288
ssS'name'
p289
S'Arduino Nano w/ ATmega168'
p290
saa(lp291
S'mega2560'
p292
a(dp293
S'build'
p294
(dp295
S'core'
p296
S'arduino'
p297
sS'mcu'
p298
S'atmega2560'
p299
sS'f_cpu'
p300
S'16000000L'
p301
sS'variant'
p302
S'mega'
p303
ssS'bootloader'
p304
(dp305
S'extended_fuses'
p306
S'0xFD'
p307
sS'high_fuses'
p308
S'0xD8'
p309
sS'low_fuses'
p310
S'0xFF'
p311
sS'lock_bits'
p312
S'0x0F'
p313
sS'file'
p314
S'stk500boot_v2_mega2560.hex'
p315
sS'path'
p316
S'stk500v2'
p317
sS'unlock_bits'
p318
S'0x3F'
p319
ssS'upload'
p320
(dp321
S'protocol'
p322
S'wiring'
p323
sS'maximum_size'
p324
S'258048'
p325
sS'speed'
p326
S'115200'
p327
ssS'name'
p328
S'Arduino Mega 2560 or Mega ADK'
p329
saa(lp330
S'mega'
p331
a(dp332
S'build'
p333
(dp334
S'core'
p335
S'arduino'
p336
sS'mcu'
p337
S'atmega1280'
p338
sS'f_cpu'
p339
S'16000000L'
p340
sS'variant'
p341
S'mega'
p342
ssS'bootloader'
p343
(dp344
S'extended_fuses'
p345
S'0xF5'
p346
sS'high_fuses'
p347
S'0xDA'
p348
sS'low_fuses'
p349
S'0xFF'
p350
sS'lock_bits'
p351
S'0x0F'
p352
sS'file'
p353
S'ATmegaBOOT_168_atmega1280.hex'
p354
sS'path'
p355
S'atmega'
p356
sS'unlock_bits'
p357
S'0x3F'
p358
ssS'upload'
p359
(dp360
S'protocol'
p361
S'arduino'
p362
sS'maximum_size'
p363
S'126976'
p364
sS'speed'
p365
S'57600'
p366
ssS'name'
p367
S'Arduino Mega (ATmega1280)'
p368
saa(lp369
S'leonardo'
p370
a(dp371
S'build'
p372
(dp373
S'core'
p374
S'arduino'
p375
sS'f_cpu'
p376
S'16000000L'
p377
sS'vid'
p378
S'0x2341'
p379
sS'pid'
p380
S'0x8036'
p381
sS'variant'
p382
S'leonardo'
p383
sS'mcu'
p384
S'atmega32u4'
p385
ssS'bootloader'
p386
(dp387
S'extended_fuses'
p388
S'0xcb'
p389
sS'high_fuses'
p390
S'0xd8'
p391
sS'low_fuses'
p392
S'0xff'
p393
sS'lock_bits'
p394
S'0x2F'
p395
sS'file'
p396
S'Caterina-Leonardo.hex'
p397
sS'path'
p398
S'caterina'
p399
sS'unlock_bits'
p400
S'0x3F'
p401
ssS'upload'
p402
(dp403
S'protocol'
p404
S'avr109'
p405
sS'maximum_size'
p406
S'28672'
p407
sS'speed'
p408
S'57600'
p409
sS'disable_flushing'
p410
S'true'
p411
ssS'name'
p412
S'Arduino Leonardo'
p413
saa(lp414
S'esplora'
p415
a(dp416
S'build'
p417
(dp418
S'core'
p419
S'arduino'
p420
sS'f_cpu'
p421
S'16000000L'
p422
sS'vid'
p423
S'0x2341'
p424
sS'pid'
p425
S'0x803C'
p426
sS'variant'
p427
S'leonardo'
p428
sS'mcu'
p429
S'atmega32u4'
p430
ssS'bootloader'
p431
(dp432
S'extended_fuses'
p433
S'0xcb'
p434
sS'high_fuses'
p435
S'0xd8'
p436
sS'low_fuses'
p437
S'0xff'
p438
sS'lock_bits'
p439
S'0x2F'
p440
sS'file'
p441
S'Caterina-Esplora.hex'
p442
sS'path'
p443
S'caterina'
p444
sS'unlock_bits'
p445
S'0x3F'
p446
ssS'upload'
p447
(dp448
S'protocol'
p449
S'avr109'
p450
sS'maximum_size'
p451
S'28672'
p452
sS'speed'
p453
S'57600'
p454
sS'disable_flushing'
p455
S'true'
p456
ssS'name'
p457
S'Arduino Esplora'
p458
saa(lp459
S'micro'
p460
a(dp461
S'build'
p462
(dp463
S'core'
p464
S'arduino'
p465
sS'f_cpu'
p466
S'16000000L'
p467
sS'vid'
p468
S'0x2341'
p469
sS'pid'
p470
S'0x8037'
p471
sS'variant'
p472
S'micro'
p473
sS'mcu'
p474
S'atmega32u4'
p475
ssS'bootloader'
p476
(dp477
S'extended_fuses'
p478
S'0xcb'
p479
sS'high_fuses'
p480
S'0xd8'
p481
sS'low_fuses'
p482
S'0xff'
p483
sS'lock_bits'
p484
S'0x2F'
p485
sS'file'
p486
S'Caterina-Micro.hex'
p487
sS'path'
p488
S'caterina'
p489
sS'unlock_bits'
p490
S'0x3F'
p491
ssS'upload'
p492
(dp493
S'protocol'
p494
S'avr109'
p495
sS'maximum_size'
p496
S'28672'
p497
sS'speed'
p498
S'57600'
p499
sS'disable_flushing'
p500
S'true'
p501
ssS'name'
p502
S'Arduino Micro'
p503
saa(lp504
S'mini328'
p505
a(dp506
S'build'
p507
(dp508
S'core'
p509
S'arduino'
p510
sS'mcu'
p511
S'atmega328p'
p512
sS'f_cpu'
p513
S'16000000L'
p514
sS'variant'
p515
S'eightanaloginputs'
p516
ssS'bootloader'
p517
(dp518
S'extended_fuses'
p519
S'0x05'
p520
sS'high_fuses'
p521
S'0xd8'
p522
sS'low_fuses'
p523
S'0xff'
p524
sS'lock_bits'
p525
S'0x0F'
p526
sS'file'
p527
S'optiboot_atmega328-Mini.hex'
p528
sS'path'
p529
S'optiboot'
p530
sS'unlock_bits'
p531
S'0x3F'
p532
ssS'upload'
p533
(dp534
S'protocol'
p535
S'arduino'
p536
sS'maximum_size'
p537
S'28672'
p538
sS'speed'
p539
S'115200'
p540
ssS'name'
p541
S'Arduino Mini w/ ATmega328'
p542
saa(lp543
S'mini'
p544
a(dp545
S'build'
p546
(dp547
S'core'
p548
S'arduino'
p549
sS'mcu'
p550
S'atmega168'
p551
sS'f_cpu'
p552
S'16000000L'
p553
sS'variant'
p554
S'eightanaloginputs'
p555
ssS'bootloader'
p556
(dp557
S'extended_fuses'
p558
S'0x00'
p559
sS'high_fuses'
p560
S'0xdd'
p561
sS'low_fuses'
p562
S'0xff'
p563
sS'lock_bits'
p564
S'0x0F'
p565
sS'file'
p566
S'ATmegaBOOT_168_ng.hex'
p567
sS'path'
p568
S'atmega'
p569
sS'unlock_bits'
p570
S'0x3F'
p571
ssS'upload'
p572
(dp573
S'protocol'
p574
S'arduino'
p575
sS'maximum_size'
p576
S'14336'
p577
sS'speed'
p578
S'19200'
p579
ssS'name'
p580
S'Arduino Mini w/ ATmega168'
p581
saa(lp582
S'ethernet'
p583
a(dp584
S'build'
p585
(dp586
S'variant'
p587
S'standard'
p588
sS'mcu'
p589
S'atmega328p'
p590
sS'f_cpu'
p591
S'16000000L'
p592
sS'core'
p593
S'arduino'
p594
ssS'bootloader'
p595
(dp596
S'extended_fuses'
p597
S'0x05'
p598
sS'high_fuses'
p599
S'0xde'
p600
sS'low_fuses'
p601
S'0xff'
p602
sS'lock_bits'
p603
S'0x0F'
p604
sS'file'
p605
S'optiboot_atmega328.hex'
p606
sS'path'
p607
S'optiboot'
p608
sS'unlock_bits'
p609
S'0x3F'
p610
ssS'upload'
p611
(dp612
S'protocol'
p613
S'arduino'
p614
sS'maximum_size'
p615
S'32256'
p616
sS'speed'
p617
S'115200'
p618
ssS'name'
p619
S'Arduino Ethernet'
p620
saa(lp621
S'fio'
p622
a(dp623
S'build'
p624
(dp625
S'core'
p626
S'arduino'
p627
sS'mcu'
p628
S'atmega328p'
p629
sS'f_cpu'
p630
S'8000000L'
p631
sS'variant'
p632
S'eightanaloginputs'
p633
ssS'bootloader'
p634
(dp635
S'extended_fuses'
p636
S'0x05'
p637
sS'high_fuses'
p638
S'0xDA'
p639
sS'low_fuses'
p640
S'0xFF'
p641
sS'lock_bits'
p642
S'0x0F'
p643
sS'file'
p644
S'ATmegaBOOT_168_atmega328_pro_8MHz.hex'
p645
sS'path'
p646
S'arduino:atmega'
p647
sS'unlock_bits'
p648
S'0x3F'
p649
ssS'upload'
p650
(dp651
S'protocol'
p652
S'arduino'
p653
sS'maximum_size'
p654
S'30720'
p655
sS'speed'
p656
S'57600'
p657
ssS'name'
p658
S'Arduino Fio'
p659
saa(lp660
S'bt328'
p661
a(dp662
S'build'
p663
(dp664
S'core'
p665
S'arduino'
p666
sS'mcu'
p667
S'atmega328p'
p668
sS'f_cpu'
p669
S'16000000L'
p670
sS'variant'
p671
S'eightanaloginputs'
p672
ssS'bootloader'
p673
(dp674
S'extended_fuses'
p675
S'0x05'
p676
sS'high_fuses'
p677
S'0xd8'
p678
sS'low_fuses'
p679
S'0xff'
p680
sS'lock_bits'
p681
S'0x0F'
p682
sS'file'
p683
S'ATmegaBOOT_168_atmega328_bt.hex'
p684
sS'path'
p685
S'bt'
p686
sS'unlock_bits'
p687
S'0x3F'
p688
ssS'upload'
p689
(dp690
S'protocol'
p691
S'arduino'
p692
sS'maximum_size'
p693
S'28672'
p694
sS'speed'
p695
S'19200'
p696
sS'disable_flushing'
p697
S'true'
p698
ssS'name'
p699
S'Arduino BT w/ ATmega328'
p700
saa(lp701
S'bt'
p702
a(dp703
S'build'
p704
(dp705
S'core'
p706
S'arduino'
p707
sS'mcu'
p708
S'atmega168'
p709
sS'f_cpu'
p710
S'16000000L'
p711
sS'variant'
p712
S'eightanaloginputs'
p713
ssS'bootloader'
p714
(dp715
S'extended_fuses'
p716
S'0x00'
p717
sS'high_fuses'
p718
S'0xdd'
p719
sS'low_fuses'
p720
S'0xff'
p721
sS'lock_bits'
p722
S'0x0F'
p723
sS'file'
p724
S'ATmegaBOOT_168.hex'
p725
sS'path'
p726
S'bt'
p727
sS'unlock_bits'
p728
S'0x3F'
p729
ssS'upload'
p730
(dp731
S'protocol'
p732
S'arduino'
p733
sS'maximum_size'
p734
S'14336'
p735
sS'speed'
p736
S'19200'
p737
sS'disable_flushing'
p738
S'true'
p739
ssS'name'
p740
S'Arduino BT w/ ATmega168'
p741
saa(lp742
S'LilyPadUSB'
p743
a(dp744
S'build'
p745
(dp746
S'core'
p747
S'arduino'
p748
sS'f_cpu'
p749
S'8000000L'
p750
sS'vid'
p751
S'0x1B4F'
p752
sS'pid'
p753
S'0x9208'
p754
sS'variant'
p755
S'leonardo'
p756
sS'mcu'
p757
S'atmega32u4'
p758
ssS'bootloader'
p759
(dp760
S'extended_fuses'
p761
S'0xce'
p762
sS'high_fuses'
p763
S'0xd8'
p764
sS'low_fuses'
p765
S'0xff'
p766
sS'lock_bits'
p767
S'0x2F'
p768
sS'file'
p769
S'Caterina-LilyPadUSB.hex'
p770
sS'path'
p771
S'caterina-LilyPadUSB'
p772
sS'unlock_bits'
p773
S'0x3F'
p774
ssS'upload'
p775
(dp776
S'protocol'
p777
S'avr109'
p778
sS'maximum_size'
p779
S'28672'
p780
sS'speed'
p781
S'57600'
p782
sS'disable_flushing'
p783
S'true'
p784
ssS'name'
p785
S'LilyPad Arduino USB'
p786
saa(lp787
S'lilypad328'
p788
a(dp789
S'build'
p790
(dp791
S'core'
p792
S'arduino'
p793
sS'mcu'
p794
S'atmega328p'
p795
sS'f_cpu'
p796
S'8000000L'
p797
sS'variant'
p798
S'standard'
p799
ssS'bootloader'
p800
(dp801
S'extended_fuses'
p802
S'0x05'
p803
sS'high_fuses'
p804
S'0xDA'
p805
sS'low_fuses'
p806
S'0xFF'
p807
sS'lock_bits'
p808
S'0x0F'
p809
sS'file'
p810
S'ATmegaBOOT_168_atmega328_pro_8MHz.hex'
p811
sS'path'
p812
S'atmega'
p813
sS'unlock_bits'
p814
S'0x3F'
p815
ssS'upload'
p816
(dp817
S'protocol'
p818
S'arduino'
p819
sS'maximum_size'
p820
S'30720'
p821
sS'speed'
p822
S'57600'
p823
ssS'name'
p824
S'LilyPad Arduino w/ ATmega328'
p825
saa(lp826
S'lilypad'
p827
a(dp828
S'build'
p829
(dp830
S'core'
p831
S'arduino'
p832
sS'mcu'
p833
S'atmega168'
p834
sS'f_cpu'
p835
S'8000000L'
p836
sS'variant'
p837
S'standard'
p838
ssS'bootloader'
p839
(dp840
S'extended_fuses'
p841
S'0x00'
p842
sS'high_fuses'
p843
S'0xdd'
p844
sS'low_fuses'
p845
S'0xe2'
p846
sS'lock_bits'
p847
S'0x0F'
p848
sS'file'
p849
S'LilyPadBOOT_168.hex'
p850
sS'path'
p851
S'lilypad'
p852
sS'unlock_bits'
p853
S'0x3F'
p854
ssS'upload'
p855
(dp856
S'protocol'
p857
S'arduino'
p858
sS'maximum_size'
p859
S'14336'
p860
sS'speed'
p861
S'19200'
p862
ssS'name'
p863
S'LilyPad Arduino w/ ATmega168'
p864
saa(lp865
S'pro5v328'
p866
a(dp867
S'build'
p868
(dp869
S'core'
p870
S'arduino'
p871
sS'mcu'
p872
S'atmega328p'
p873
sS'f_cpu'
p874
S'16000000L'
p875
sS'variant'
p876
S'standard'
p877
ssS'bootloader'
p878
(dp879
S'extended_fuses'
p880
S'0x05'
p881
sS'high_fuses'
p882
S'0xDA'
p883
sS'low_fuses'
p884
S'0xFF'
p885
sS'lock_bits'
p886
S'0x0F'
p887
sS'file'
p888
S'ATmegaBOOT_168_atmega328.hex'
p889
sS'path'
p890
S'atmega'
p891
sS'unlock_bits'
p892
S'0x3F'
p893
ssS'upload'
p894
(dp895
S'protocol'
p896
S'arduino'
p897
sS'maximum_size'
p898
S'30720'
p899
sS'speed'
p900
S'57600'
p901
ssS'name'
p902
S'Arduino Pro or Pro Mini (5V, 16 MHz) w/ ATmega328'
p903
saa(lp904
S'pro5v'
p905
a(dp906
S'build'
p907
(dp908
S'core'
p909
S'arduino'
p910
sS'mcu'
p911
S'atmega168'
p912
sS'f_cpu'
p913
S'16000000L'
p914
sS'variant'
p915
S'standard'
p916
ssS'bootloader'
p917
(dp918
S'extended_fuses'
p919
S'0x00'
p920
sS'high_fuses'
p921
S'0xdd'
p922
sS'low_fuses'
p923
S'0xff'
p924
sS'lock_bits'
p925
S'0x0F'
p926
sS'file'
p927
S'ATmegaBOOT_168_diecimila.hex'
p928
sS'path'
p929
S'atmega'
p930
sS'unlock_bits'
p931
S'0x3F'
p932
ssS'upload'
p933
(dp934
S'protocol'
p935
S'arduino'
p936
sS'maximum_size'
p937
S'14336'
p938
sS'speed'
p939
S'19200'
p940
ssS'name'
p941
S'Arduino Pro or Pro Mini (5V, 16 MHz) w/ ATmega168'
p942
saa(lp943
S'pro328'
p944
a(dp945
S'build'
p946
(dp947
S'core'
p948
S'arduino'
p949
sS'mcu'
p950
S'atmega328p'
p951
sS'f_cpu'
p952
S'8000000L'
p953
sS'variant'
p954
S'standard'
p955
ssS'bootloader'
p956
(dp957
S'extended_fuses'
p958
S'0x05'
p959
sS'high_fuses'
p960
S'0xDA'
p961
sS'low_fuses'
p962
S'0xFF'
p963
sS'lock_bits'
p964
S'0x0F'
p965
sS'file'
p966
S'ATmegaBOOT_168_atmega328_pro_8MHz.hex'
p967
sS'path'
p968
S'atmega'
p969
sS'unlock_bits'
p970
S'0x3F'
p971
ssS'upload'
p972
(dp973
S'protocol'
p974
S'arduino'
p975
sS'maximum_size'
p976
S'30720'
p977
sS'speed'
p978
S'57600'
p979
ssS'name'
p980
S'Arduino Pro or Pro Mini (3.3V, 8 MHz) w/ ATmega328'
p981
saa(lp982
S'pro'
p983
a(dp984
S'build'
p985
(dp986
S'core'
p987
S'arduino'
p988
sS'mcu'
p989
S'atmega168'
p990
sS'f_cpu'
p991
S'8000000L'
p992
sS'variant'
p993
S'standard'
p994
ssS'bootloader'
p995
(dp996
S'extended_fuses'
p997
S'0x00'
p998
sS'high_fuses'
p999
S'0xdd'
p1000
sS'low_fuses'
p1001
S'0xc6'
p1002
sS'lock_bits'
p1003
S'0x0F'
p1004
sS'file'
p1005
S'ATmegaBOOT_168_pro_8MHz.hex'
p1006
sS'path'
p1007
S'atmega'
p1008
sS'unlock_bits'
p1009
S'0x3F'
p1010
ssS'upload'
p1011
(dp1012
S'protocol'
p1013
S'arduino'
p1014
sS'maximum_size'
p1015
S'14336'
p1016
sS'speed'
p1017
S'19200'
p1018
ssS'name'
p1019
S'Arduino Pro or Pro Mini (3.3V, 8 MHz) w/ ATmega168'
p1020
saa(lp1021
S'atmega168'
p1022
a(dp1023
S'build'
p1024
(dp1025
S'core'
p1026
S'arduino'
p1027
sS'mcu'
p1028
S'atmega168'
p1029
sS'f_cpu'
p1030
S'16000000L'
p1031
sS'variant'
p1032
S'standard'
p1033
ssS'bootloader'
p1034
(dp1035
S'extended_fuses'
p1036
S'0x00'
p1037
sS'high_fuses'
p1038
S'0xdd'
p1039
sS'low_fuses'
p1040
S'0xff'
p1041
sS'lock_bits'
p1042
S'0x0F'
p1043
sS'file'
p1044
S'ATmegaBOOT_168_ng.hex'
p1045
sS'path'
p1046
S'atmega'
p1047
sS'unlock_bits'
p1048
S'0x3F'
p1049
ssS'upload'
p1050
(dp1051
S'protocol'
p1052
S'arduino'
p1053
sS'maximum_size'
p1054
S'14336'
p1055
sS'speed'
p1056
S'19200'
p1057
ssS'name'
p1058
S'Arduino NG or older w/ ATmega168'
p1059
saa(lp1060
S'atmega8'
p1061
a(dp1062
S'build'
p1063
(dp1064
S'core'
p1065
S'arduino'
p1066
sS'mcu'
p1067
S'atmega8'
p1068
sS'f_cpu'
p1069
S'16000000L'
p1070
sS'variant'
p1071
S'standard'
p1072
ssS'bootloader'
p1073
(dp1074
S'high_fuses'
p1075
S'0xca'
p1076
sS'low_fuses'
p1077
S'0xdf'
p1078
sS'lock_bits'
p1079
S'0x0F'
p1080
sS'file'
p1081
S'ATmegaBOOT-prod-firmware-2009-11-07.hex'
p1082
sS'path'
p1083
S'atmega8'
p1084
sS'unlock_bits'
p1085
S'0x3F'
p1086
ssS'upload'
p1087
(dp1088
S'protocol'
p1089
S'arduino'
p1090
sS'maximum_size'
p1091
S'7168'
p1092
sS'speed'
p1093
S'19200'
p1094
ssS'name'
p1095
S'Arduino NG or older w/ ATmega8'
p1096
saa(lp1097
S'robotControl'
p1098
a(dp1099
S'build'
p1100
(dp1101
S'core'
p1102
S'robot'
p1103
sS'f_cpu'
p1104
S'16000000L'
p1105
sS'vid'
p1106
S'0x2341'
p1107
sS'pid'
p1108
S'0x8038'
p1109
sS'variant'
p1110
S'robot_control'
p1111
sS'mcu'
p1112
S'atmega32u4'
p1113
ssS'bootloader'
p1114
(dp1115
S'extended_fuses'
p1116
S'0xcb'
p1117
sS'high_fuses'
p1118
S'0xd8'
p1119
sS'low_fuses'
p1120
S'0xff'
p1121
sS'lock_bits'
p1122
S'0x2F'
p1123
sS'file'
p1124
S'Caterina-Robot-Control.hex'
p1125
sS'path'
p1126
S'caterina-Arduino_Robot'
p1127
sS'unlock_bits'
p1128
S'0x3F'
p1129
ssS'upload'
p1130
(dp1131
S'protocol'
p1132
S'avr109'
p1133
sS'maximum_size'
p1134
S'28672'
p1135
sS'speed'
p1136
S'57600'
p1137
sS'disable_flushing'
p1138
S'true'
p1139
ssS'name'
p1140
S'Arduino Robot Control'
p1141
saa(lp1142
S'robotMotor'
p1143
a(dp1144
S'build'
p1145
(dp1146
S'core'
p1147
S'robot'
p1148
sS'f_cpu'
p1149
S'16000000L'
p1150
sS'vid'
p1151
S'0x2341'
p1152
sS'pid'
p1153
S'0x8039'
p1154
sS'variant'
p1155
S'robot_motor'
p1156
sS'mcu'
p1157
S'atmega32u4'
p1158
ssS'bootloader'
p1159
(dp1160
S'extended_fuses'
p1161
S'0xcb'
p1162
sS'high_fuses'
p1163
S'0xd8'
p1164
sS'low_fuses'
p1165
S'0xff'
p1166
sS'lock_bits'
p1167
S'0x2F'
p1168
sS'file'
p1169
S'Caterina-Robot-Motor.hex'
p1170
sS'path'
p1171
S'caterina-Arduino_Robot'
p1172
sS'unlock_bits'
p1173
S'0x3F'
p1174
ssS'upload'
p1175
(dp1176
S'protocol'
p1177
S'avr109'
p1178
sS'maximum_size'
p1179
S'28672'
p1180
sS'speed'
p1181
S'57600'
p1182
sS'disable_flushing'
p1183
S'true'
p1184
ssS'name'
p1185
S'Arduino Robot Motor'
p1186
saatp1187
Rp1188
(dp1189
S'default'
p1190
S'uno'
p1191
sbtp1192
a(S'ldflags'
p1193
g2
(g3
g4
(lp1194
g6
aS'-Wl,-Os'
p1195
aS'-Wl,--gc-sections'
p1196
atp1197
Rp1198
tp1199
a.