(lp0
(S'cppflags'
p1
ccopy_reg
_reconstructor
p2
(cino.utils
SpaceList
p3
c__builtin__
list
p4
(lp5
S'-mmcu=atmega328p'
p6
aS'-DF_CPU=16000000L'
p7
aS'-DARDUINO=105'
p8
aS'-I/Applications/Arduino.app/Contents/Resources/Java/hardware/arduino/cores/arduino'
p9
aS'-ffunction-sections'
p10
aS'-fdata-sections'
p11
aS'-g'
p12
aS'-Os'
p13
aS'-w'
p14
aS'-I/Applications/Arduino.app/Contents/Resources/Java/hardware/arduino/variants/standard'
p15
aS'-I/Applications/Arduino.app/Contents/Resources/Java/hardware/arduino/cores/arduino'
p16
aS'-I/Applications/Arduino.app/Contents/Resources/Java/hardware/arduino/cores/arduino/avr-libc'
p17
atp18
Rp19
tp20
a(S'version.txt'
p21
S'/Applications/Arduino.app/Contents/Resources/Java/lib/version.txt'
p22
tp23
a(S'used_libs'
p24
(lp25
S'/Applications/Arduino.app/Contents/Resources/Java/hardware/arduino/cores/arduino'
p26
atp27
a(S'cc'
p28
S'/Applications/Arduino.app/Contents/Resources/Java/hardware/tools/avr/bin/avr-gcc'
p29
tp30
a(S'make'
p31
S'/Applications/Arduino.app/Contents/Resources/Java/hardware/tools/avr/bin/make'
p32
tp33
a(S'build_dir'
p34
S'.build/uno'
p35
tp36
a(S'arduino_core_dir'
p37
g26
tp38
a(S'boards.txt'
p39
S'/Applications/Arduino.app/Contents/Resources/Java/hardware/arduino/boards.txt'
p40
tp41
a(S'cxxflags'
p42
g2
(g3
g4
(lp43
S'-fno-exceptions'
p44
atp45
Rp46
tp47
a(S'arduino_variants_dir'
p48
S'/Applications/Arduino.app/Contents/Resources/Java/hardware/arduino/variants'
p49
tp50
a(S'deps'
p51
g2
(g3
g4
(lp52
S'.build/uno/src/dependencies.d'
p53
aS'.build/uno/arduino/dependencies.d'
p54
atp55
Rp56
tp57
a(S'ar'
p58
S'/Applications/Arduino.app/Contents/Resources/Java/hardware/tools/avr/bin/avr-ar'
p59
tp60
a(S'names'
p61
(dp62
S'cpp'
p63
S'%s.cpp'
p64
sS'obj'
p65
S'%s.o'
p66
sS'deps'
p67
S'%s.d'
p68
sS'lib'
p69
S'lib%s.a'
p70
stp71
a(S'cflags'
p72
g2
(g3
g4
(lp73
tp74
Rp75
tp76
a(S'ldflags'
p77
g2
(g3
g4
(lp78
g6
aS'-Wl,-Os'
p79
aS'-Wl,--gc-sections'
p80
atp81
Rp82
tp83
a(S'arduino_libraries_dir'
p84
S'/Applications/Arduino.app/Contents/Resources/Java/libraries'
p85
tp86
a(S'arduino_lib_version'
p87
g2
(cino.environment
Version
p88
c__builtin__
tuple
p89
(I1
I0
I5
tp90
tp91
Rp92
tp93
a(S'objcopy'
p94
S'/Applications/Arduino.app/Contents/Resources/Java/hardware/tools/avr/bin/avr-objcopy'
p95
tp96
a(S'board_models'
p97
cino.environment
BoardModels
p98
((lp99
(lp100
S'uno'
p101
a(dp102
S'bootloader'
p103
(dp104
S'extended_fuses'
p105
S'0x05'
p106
sS'high_fuses'
p107
S'0xde'
p108
sS'low_fuses'
p109
S'0xff'
p110
sS'lock_bits'
p111
S'0x0F'
p112
sS'file'
p113
S'optiboot_atmega328.hex'
p114
sS'path'
p115
S'optiboot'
p116
sS'unlock_bits'
p117
S'0x3F'
p118
ssS'build'
p119
(dp120
S'core'
p121
S'arduino'
p122
sS'mcu'
p123
S'atmega328p'
p124
sS'f_cpu'
p125
S'16000000L'
p126
sS'variant'
p127
S'standard'
p128
ssS'name'
p129
S'Arduino Uno'
p130
sS'upload'
p131
(dp132
S'speed'
p133
S'115200'
p134
sS'maximum_size'
p135
S'32256'
p136
sS'protocol'
p137
S'arduino'
p138
ssaa(lp139
S'atmega328'
p140
a(dp141
S'bootloader'
p142
(dp143
S'extended_fuses'
p144
S'0x05'
p145
sS'high_fuses'
p146
S'0xDA'
p147
sS'low_fuses'
p148
S'0xFF'
p149
sS'lock_bits'
p150
S'0x0F'
p151
sS'file'
p152
S'ATmegaBOOT_168_atmega328.hex'
p153
sS'path'
p154
S'atmega'
p155
sS'unlock_bits'
p156
S'0x3F'
p157
ssS'build'
p158
(dp159
S'core'
p160
S'arduino'
p161
sS'mcu'
p162
S'atmega328p'
p163
sS'f_cpu'
p164
S'16000000L'
p165
sS'variant'
p166
S'standard'
p167
ssS'name'
p168
S'Arduino Duemilanove w/ ATmega328'
p169
sS'upload'
p170
(dp171
S'speed'
p172
S'57600'
p173
sS'maximum_size'
p174
S'30720'
p175
sS'protocol'
p176
S'arduino'
p177
ssaa(lp178
S'diecimila'
p179
a(dp180
S'bootloader'
p181
(dp182
S'extended_fuses'
p183
S'0x00'
p184
sS'high_fuses'
p185
S'0xdd'
p186
sS'low_fuses'
p187
S'0xff'
p188
sS'lock_bits'
p189
S'0x0F'
p190
sS'file'
p191
S'ATmegaBOOT_168_diecimila.hex'
p192
sS'path'
p193
S'atmega'
p194
sS'unlock_bits'
p195
S'0x3F'
p196
ssS'build'
p197
(dp198
S'core'
p199
S'arduino'
p200
sS'mcu'
p201
S'atmega168'
p202
sS'f_cpu'
p203
S'16000000L'
p204
sS'variant'
p205
S'standard'
p206
ssS'name'
p207
S'Arduino Diecimila or Duemilanove w/ ATmega168'
p208
sS'upload'
p209
(dp210
S'speed'
p211
S'19200'
p212
sS'maximum_size'
p213
S'14336'
p214
sS'protocol'
p215
S'arduino'
p216
ssaa(lp217
S'nano328'
p218
a(dp219
S'bootloader'
p220
(dp221
S'extended_fuses'
p222
S'0x05'
p223
sS'high_fuses'
p224
S'0xDA'
p225
sS'low_fuses'
p226
S'0xFF'
p227
sS'lock_bits'
p228
S'0x0F'
p229
sS'file'
p230
S'ATmegaBOOT_168_atmega328.hex'
p231
sS'path'
p232
S'atmega'
p233
sS'unlock_bits'
p234
S'0x3F'
p235
ssS'build'
p236
(dp237
S'core'
p238
S'arduino'
p239
sS'mcu'
p240
S'atmega328p'
p241
sS'f_cpu'
p242
S'16000000L'
p243
sS'variant'
p244
S'eightanaloginputs'
p245
ssS'name'
p246
S'Arduino Nano w/ ATmega328'
p247
sS'upload'
p248
(dp249
S'speed'
p250
S'57600'
p251
sS'maximum_size'
p252
S'30720'
p253
sS'protocol'
p254
S'arduino'
p255
ssaa(lp256
S'nano'
p257
a(dp258
S'bootloader'
p259
(dp260
S'extended_fuses'
p261
S'0x00'
p262
sS'high_fuses'
p263
S'0xdd'
p264
sS'low_fuses'
p265
S'0xff'
p266
sS'lock_bits'
p267
S'0x0F'
p268
sS'file'
p269
S'ATmegaBOOT_168_diecimila.hex'
p270
sS'path'
p271
S'atmega'
p272
sS'unlock_bits'
p273
S'0x3F'
p274
ssS'build'
p275
(dp276
S'core'
p277
S'arduino'
p278
sS'mcu'
p279
S'atmega168'
p280
sS'f_cpu'
p281
S'16000000L'
p282
sS'variant'
p283
S'eightanaloginputs'
p284
ssS'name'
p285
S'Arduino Nano w/ ATmega168'
p286
sS'upload'
p287
(dp288
S'speed'
p289
S'19200'
p290
sS'maximum_size'
p291
S'14336'
p292
sS'protocol'
p293
S'arduino'
p294
ssaa(lp295
S'mega2560'
p296
a(dp297
S'bootloader'
p298
(dp299
S'extended_fuses'
p300
S'0xFD'
p301
sS'high_fuses'
p302
S'0xD8'
p303
sS'low_fuses'
p304
S'0xFF'
p305
sS'lock_bits'
p306
S'0x0F'
p307
sS'file'
p308
S'stk500boot_v2_mega2560.hex'
p309
sS'path'
p310
S'stk500v2'
p311
sS'unlock_bits'
p312
S'0x3F'
p313
ssS'build'
p314
(dp315
S'core'
p316
S'arduino'
p317
sS'mcu'
p318
S'atmega2560'
p319
sS'f_cpu'
p320
S'16000000L'
p321
sS'variant'
p322
S'mega'
p323
ssS'name'
p324
S'Arduino Mega 2560 or Mega ADK'
p325
sS'upload'
p326
(dp327
S'speed'
p328
S'115200'
p329
sS'maximum_size'
p330
S'258048'
p331
sS'protocol'
p332
S'wiring'
p333
ssaa(lp334
S'mega'
p335
a(dp336
S'bootloader'
p337
(dp338
S'extended_fuses'
p339
S'0xF5'
p340
sS'high_fuses'
p341
S'0xDA'
p342
sS'low_fuses'
p343
S'0xFF'
p344
sS'lock_bits'
p345
S'0x0F'
p346
sS'file'
p347
S'ATmegaBOOT_168_atmega1280.hex'
p348
sS'path'
p349
S'atmega'
p350
sS'unlock_bits'
p351
S'0x3F'
p352
ssS'build'
p353
(dp354
S'core'
p355
S'arduino'
p356
sS'mcu'
p357
S'atmega1280'
p358
sS'f_cpu'
p359
S'16000000L'
p360
sS'variant'
p361
S'mega'
p362
ssS'name'
p363
S'Arduino Mega (ATmega1280)'
p364
sS'upload'
p365
(dp366
S'speed'
p367
S'57600'
p368
sS'maximum_size'
p369
S'126976'
p370
sS'protocol'
p371
S'arduino'
p372
ssaa(lp373
S'leonardo'
p374
a(dp375
S'bootloader'
p376
(dp377
S'extended_fuses'
p378
S'0xcb'
p379
sS'high_fuses'
p380
S'0xd8'
p381
sS'low_fuses'
p382
S'0xff'
p383
sS'lock_bits'
p384
S'0x2F'
p385
sS'file'
p386
S'Caterina-Leonardo.hex'
p387
sS'path'
p388
S'caterina'
p389
sS'unlock_bits'
p390
S'0x3F'
p391
ssS'build'
p392
(dp393
S'core'
p394
S'arduino'
p395
sS'f_cpu'
p396
S'16000000L'
p397
sS'vid'
p398
S'0x2341'
p399
sS'pid'
p400
S'0x8036'
p401
sS'variant'
p402
S'leonardo'
p403
sS'mcu'
p404
S'atmega32u4'
p405
ssS'name'
p406
S'Arduino Leonardo'
p407
sS'upload'
p408
(dp409
S'speed'
p410
S'57600'
p411
sS'maximum_size'
p412
S'28672'
p413
sS'protocol'
p414
S'avr109'
p415
sS'disable_flushing'
p416
S'true'
p417
ssaa(lp418
S'esplora'
p419
a(dp420
S'bootloader'
p421
(dp422
S'extended_fuses'
p423
S'0xcb'
p424
sS'high_fuses'
p425
S'0xd8'
p426
sS'low_fuses'
p427
S'0xff'
p428
sS'lock_bits'
p429
S'0x2F'
p430
sS'file'
p431
S'Caterina-Esplora.hex'
p432
sS'path'
p433
S'caterina'
p434
sS'unlock_bits'
p435
S'0x3F'
p436
ssS'build'
p437
(dp438
S'core'
p439
S'arduino'
p440
sS'f_cpu'
p441
S'16000000L'
p442
sS'vid'
p443
S'0x2341'
p444
sS'pid'
p445
S'0x803C'
p446
sS'variant'
p447
S'leonardo'
p448
sS'mcu'
p449
S'atmega32u4'
p450
ssS'name'
p451
S'Arduino Esplora'
p452
sS'upload'
p453
(dp454
S'speed'
p455
S'57600'
p456
sS'maximum_size'
p457
S'28672'
p458
sS'protocol'
p459
S'avr109'
p460
sS'disable_flushing'
p461
S'true'
p462
ssaa(lp463
S'micro'
p464
a(dp465
S'bootloader'
p466
(dp467
S'extended_fuses'
p468
S'0xcb'
p469
sS'high_fuses'
p470
S'0xd8'
p471
sS'low_fuses'
p472
S'0xff'
p473
sS'lock_bits'
p474
S'0x2F'
p475
sS'file'
p476
S'Caterina-Micro.hex'
p477
sS'path'
p478
S'caterina'
p479
sS'unlock_bits'
p480
S'0x3F'
p481
ssS'build'
p482
(dp483
S'core'
p484
S'arduino'
p485
sS'f_cpu'
p486
S'16000000L'
p487
sS'vid'
p488
S'0x2341'
p489
sS'pid'
p490
S'0x8037'
p491
sS'variant'
p492
S'micro'
p493
sS'mcu'
p494
S'atmega32u4'
p495
ssS'name'
p496
S'Arduino Micro'
p497
sS'upload'
p498
(dp499
S'speed'
p500
S'57600'
p501
sS'maximum_size'
p502
S'28672'
p503
sS'protocol'
p504
S'avr109'
p505
sS'disable_flushing'
p506
S'true'
p507
ssaa(lp508
S'mini328'
p509
a(dp510
S'bootloader'
p511
(dp512
S'extended_fuses'
p513
S'0x05'
p514
sS'high_fuses'
p515
S'0xd8'
p516
sS'low_fuses'
p517
S'0xff'
p518
sS'lock_bits'
p519
S'0x0F'
p520
sS'file'
p521
S'optiboot_atmega328-Mini.hex'
p522
sS'path'
p523
S'optiboot'
p524
sS'unlock_bits'
p525
S'0x3F'
p526
ssS'build'
p527
(dp528
S'core'
p529
S'arduino'
p530
sS'mcu'
p531
S'atmega328p'
p532
sS'f_cpu'
p533
S'16000000L'
p534
sS'variant'
p535
S'eightanaloginputs'
p536
ssS'name'
p537
S'Arduino Mini w/ ATmega328'
p538
sS'upload'
p539
(dp540
S'speed'
p541
S'115200'
p542
sS'maximum_size'
p543
S'28672'
p544
sS'protocol'
p545
S'arduino'
p546
ssaa(lp547
S'mini'
p548
a(dp549
S'bootloader'
p550
(dp551
S'extended_fuses'
p552
S'0x00'
p553
sS'high_fuses'
p554
S'0xdd'
p555
sS'low_fuses'
p556
S'0xff'
p557
sS'lock_bits'
p558
S'0x0F'
p559
sS'file'
p560
S'ATmegaBOOT_168_ng.hex'
p561
sS'path'
p562
S'atmega'
p563
sS'unlock_bits'
p564
S'0x3F'
p565
ssS'build'
p566
(dp567
S'core'
p568
S'arduino'
p569
sS'mcu'
p570
S'atmega168'
p571
sS'f_cpu'
p572
S'16000000L'
p573
sS'variant'
p574
S'eightanaloginputs'
p575
ssS'name'
p576
S'Arduino Mini w/ ATmega168'
p577
sS'upload'
p578
(dp579
S'speed'
p580
S'19200'
p581
sS'maximum_size'
p582
S'14336'
p583
sS'protocol'
p584
S'arduino'
p585
ssaa(lp586
S'ethernet'
p587
a(dp588
S'bootloader'
p589
(dp590
S'extended_fuses'
p591
S'0x05'
p592
sS'high_fuses'
p593
S'0xde'
p594
sS'low_fuses'
p595
S'0xff'
p596
sS'lock_bits'
p597
S'0x0F'
p598
sS'file'
p599
S'optiboot_atmega328.hex'
p600
sS'path'
p601
S'optiboot'
p602
sS'unlock_bits'
p603
S'0x3F'
p604
ssS'build'
p605
(dp606
S'f_cpu'
p607
S'16000000L'
p608
sS'mcu'
p609
S'atmega328p'
p610
sS'variant'
p611
S'standard'
p612
sS'core'
p613
S'arduino'
p614
ssS'name'
p615
S'Arduino Ethernet'
p616
sS'upload'
p617
(dp618
S'speed'
p619
S'115200'
p620
sS'maximum_size'
p621
S'32256'
p622
sS'protocol'
p623
S'arduino'
p624
ssaa(lp625
S'fio'
p626
a(dp627
S'bootloader'
p628
(dp629
S'extended_fuses'
p630
S'0x05'
p631
sS'high_fuses'
p632
S'0xDA'
p633
sS'low_fuses'
p634
S'0xFF'
p635
sS'lock_bits'
p636
S'0x0F'
p637
sS'file'
p638
S'ATmegaBOOT_168_atmega328_pro_8MHz.hex'
p639
sS'path'
p640
S'arduino:atmega'
p641
sS'unlock_bits'
p642
S'0x3F'
p643
ssS'build'
p644
(dp645
S'core'
p646
S'arduino'
p647
sS'mcu'
p648
S'atmega328p'
p649
sS'f_cpu'
p650
S'8000000L'
p651
sS'variant'
p652
S'eightanaloginputs'
p653
ssS'name'
p654
S'Arduino Fio'
p655
sS'upload'
p656
(dp657
S'speed'
p658
S'57600'
p659
sS'maximum_size'
p660
S'30720'
p661
sS'protocol'
p662
S'arduino'
p663
ssaa(lp664
S'bt328'
p665
a(dp666
S'bootloader'
p667
(dp668
S'extended_fuses'
p669
S'0x05'
p670
sS'high_fuses'
p671
S'0xd8'
p672
sS'low_fuses'
p673
S'0xff'
p674
sS'lock_bits'
p675
S'0x0F'
p676
sS'file'
p677
S'ATmegaBOOT_168_atmega328_bt.hex'
p678
sS'path'
p679
S'bt'
p680
sS'unlock_bits'
p681
S'0x3F'
p682
ssS'build'
p683
(dp684
S'core'
p685
S'arduino'
p686
sS'mcu'
p687
S'atmega328p'
p688
sS'f_cpu'
p689
S'16000000L'
p690
sS'variant'
p691
S'eightanaloginputs'
p692
ssS'name'
p693
S'Arduino BT w/ ATmega328'
p694
sS'upload'
p695
(dp696
S'speed'
p697
S'19200'
p698
sS'maximum_size'
p699
S'28672'
p700
sS'protocol'
p701
S'arduino'
p702
sS'disable_flushing'
p703
S'true'
p704
ssaa(lp705
S'bt'
p706
a(dp707
S'bootloader'
p708
(dp709
S'extended_fuses'
p710
S'0x00'
p711
sS'high_fuses'
p712
S'0xdd'
p713
sS'low_fuses'
p714
S'0xff'
p715
sS'lock_bits'
p716
S'0x0F'
p717
sS'file'
p718
S'ATmegaBOOT_168.hex'
p719
sS'path'
p720
S'bt'
p721
sS'unlock_bits'
p722
S'0x3F'
p723
ssS'build'
p724
(dp725
S'core'
p726
S'arduino'
p727
sS'mcu'
p728
S'atmega168'
p729
sS'f_cpu'
p730
S'16000000L'
p731
sS'variant'
p732
S'eightanaloginputs'
p733
ssS'name'
p734
S'Arduino BT w/ ATmega168'
p735
sS'upload'
p736
(dp737
S'speed'
p738
S'19200'
p739
sS'maximum_size'
p740
S'14336'
p741
sS'protocol'
p742
S'arduino'
p743
sS'disable_flushing'
p744
S'true'
p745
ssaa(lp746
S'LilyPadUSB'
p747
a(dp748
S'bootloader'
p749
(dp750
S'extended_fuses'
p751
S'0xce'
p752
sS'high_fuses'
p753
S'0xd8'
p754
sS'low_fuses'
p755
S'0xff'
p756
sS'lock_bits'
p757
S'0x2F'
p758
sS'file'
p759
S'Caterina-LilyPadUSB.hex'
p760
sS'path'
p761
S'caterina-LilyPadUSB'
p762
sS'unlock_bits'
p763
S'0x3F'
p764
ssS'build'
p765
(dp766
S'core'
p767
S'arduino'
p768
sS'f_cpu'
p769
S'8000000L'
p770
sS'vid'
p771
S'0x1B4F'
p772
sS'pid'
p773
S'0x9208'
p774
sS'variant'
p775
S'leonardo'
p776
sS'mcu'
p777
S'atmega32u4'
p778
ssS'name'
p779
S'LilyPad Arduino USB'
p780
sS'upload'
p781
(dp782
S'speed'
p783
S'57600'
p784
sS'maximum_size'
p785
S'28672'
p786
sS'protocol'
p787
S'avr109'
p788
sS'disable_flushing'
p789
S'true'
p790
ssaa(lp791
S'lilypad328'
p792
a(dp793
S'bootloader'
p794
(dp795
S'extended_fuses'
p796
S'0x05'
p797
sS'high_fuses'
p798
S'0xDA'
p799
sS'low_fuses'
p800
S'0xFF'
p801
sS'lock_bits'
p802
S'0x0F'
p803
sS'file'
p804
S'ATmegaBOOT_168_atmega328_pro_8MHz.hex'
p805
sS'path'
p806
S'atmega'
p807
sS'unlock_bits'
p808
S'0x3F'
p809
ssS'build'
p810
(dp811
S'core'
p812
S'arduino'
p813
sS'mcu'
p814
S'atmega328p'
p815
sS'f_cpu'
p816
S'8000000L'
p817
sS'variant'
p818
S'standard'
p819
ssS'name'
p820
S'LilyPad Arduino w/ ATmega328'
p821
sS'upload'
p822
(dp823
S'speed'
p824
S'57600'
p825
sS'maximum_size'
p826
S'30720'
p827
sS'protocol'
p828
S'arduino'
p829
ssaa(lp830
S'lilypad'
p831
a(dp832
S'bootloader'
p833
(dp834
S'extended_fuses'
p835
S'0x00'
p836
sS'high_fuses'
p837
S'0xdd'
p838
sS'low_fuses'
p839
S'0xe2'
p840
sS'lock_bits'
p841
S'0x0F'
p842
sS'file'
p843
S'LilyPadBOOT_168.hex'
p844
sS'path'
p845
S'lilypad'
p846
sS'unlock_bits'
p847
S'0x3F'
p848
ssS'build'
p849
(dp850
S'core'
p851
S'arduino'
p852
sS'mcu'
p853
S'atmega168'
p854
sS'f_cpu'
p855
S'8000000L'
p856
sS'variant'
p857
S'standard'
p858
ssS'name'
p859
S'LilyPad Arduino w/ ATmega168'
p860
sS'upload'
p861
(dp862
S'speed'
p863
S'19200'
p864
sS'maximum_size'
p865
S'14336'
p866
sS'protocol'
p867
S'arduino'
p868
ssaa(lp869
S'pro5v328'
p870
a(dp871
S'bootloader'
p872
(dp873
S'extended_fuses'
p874
S'0x05'
p875
sS'high_fuses'
p876
S'0xDA'
p877
sS'low_fuses'
p878
S'0xFF'
p879
sS'lock_bits'
p880
S'0x0F'
p881
sS'file'
p882
S'ATmegaBOOT_168_atmega328.hex'
p883
sS'path'
p884
S'atmega'
p885
sS'unlock_bits'
p886
S'0x3F'
p887
ssS'build'
p888
(dp889
S'core'
p890
S'arduino'
p891
sS'mcu'
p892
S'atmega328p'
p893
sS'f_cpu'
p894
S'16000000L'
p895
sS'variant'
p896
S'standard'
p897
ssS'name'
p898
S'Arduino Pro or Pro Mini (5V, 16 MHz) w/ ATmega328'
p899
sS'upload'
p900
(dp901
S'speed'
p902
S'57600'
p903
sS'maximum_size'
p904
S'30720'
p905
sS'protocol'
p906
S'arduino'
p907
ssaa(lp908
S'pro5v'
p909
a(dp910
S'bootloader'
p911
(dp912
S'extended_fuses'
p913
S'0x00'
p914
sS'high_fuses'
p915
S'0xdd'
p916
sS'low_fuses'
p917
S'0xff'
p918
sS'lock_bits'
p919
S'0x0F'
p920
sS'file'
p921
S'ATmegaBOOT_168_diecimila.hex'
p922
sS'path'
p923
S'atmega'
p924
sS'unlock_bits'
p925
S'0x3F'
p926
ssS'build'
p927
(dp928
S'core'
p929
S'arduino'
p930
sS'mcu'
p931
S'atmega168'
p932
sS'f_cpu'
p933
S'16000000L'
p934
sS'variant'
p935
S'standard'
p936
ssS'name'
p937
S'Arduino Pro or Pro Mini (5V, 16 MHz) w/ ATmega168'
p938
sS'upload'
p939
(dp940
S'speed'
p941
S'19200'
p942
sS'maximum_size'
p943
S'14336'
p944
sS'protocol'
p945
S'arduino'
p946
ssaa(lp947
S'pro328'
p948
a(dp949
S'bootloader'
p950
(dp951
S'extended_fuses'
p952
S'0x05'
p953
sS'high_fuses'
p954
S'0xDA'
p955
sS'low_fuses'
p956
S'0xFF'
p957
sS'lock_bits'
p958
S'0x0F'
p959
sS'file'
p960
S'ATmegaBOOT_168_atmega328_pro_8MHz.hex'
p961
sS'path'
p962
S'atmega'
p963
sS'unlock_bits'
p964
S'0x3F'
p965
ssS'build'
p966
(dp967
S'core'
p968
S'arduino'
p969
sS'mcu'
p970
S'atmega328p'
p971
sS'f_cpu'
p972
S'8000000L'
p973
sS'variant'
p974
S'standard'
p975
ssS'name'
p976
S'Arduino Pro or Pro Mini (3.3V, 8 MHz) w/ ATmega328'
p977
sS'upload'
p978
(dp979
S'speed'
p980
S'57600'
p981
sS'maximum_size'
p982
S'30720'
p983
sS'protocol'
p984
S'arduino'
p985
ssaa(lp986
S'pro'
p987
a(dp988
S'bootloader'
p989
(dp990
S'extended_fuses'
p991
S'0x00'
p992
sS'high_fuses'
p993
S'0xdd'
p994
sS'low_fuses'
p995
S'0xc6'
p996
sS'lock_bits'
p997
S'0x0F'
p998
sS'file'
p999
S'ATmegaBOOT_168_pro_8MHz.hex'
p1000
sS'path'
p1001
S'atmega'
p1002
sS'unlock_bits'
p1003
S'0x3F'
p1004
ssS'build'
p1005
(dp1006
S'core'
p1007
S'arduino'
p1008
sS'mcu'
p1009
S'atmega168'
p1010
sS'f_cpu'
p1011
S'8000000L'
p1012
sS'variant'
p1013
S'standard'
p1014
ssS'name'
p1015
S'Arduino Pro or Pro Mini (3.3V, 8 MHz) w/ ATmega168'
p1016
sS'upload'
p1017
(dp1018
S'speed'
p1019
S'19200'
p1020
sS'maximum_size'
p1021
S'14336'
p1022
sS'protocol'
p1023
S'arduino'
p1024
ssaa(lp1025
S'atmega168'
p1026
a(dp1027
S'bootloader'
p1028
(dp1029
S'extended_fuses'
p1030
S'0x00'
p1031
sS'high_fuses'
p1032
S'0xdd'
p1033
sS'low_fuses'
p1034
S'0xff'
p1035
sS'lock_bits'
p1036
S'0x0F'
p1037
sS'file'
p1038
S'ATmegaBOOT_168_ng.hex'
p1039
sS'path'
p1040
S'atmega'
p1041
sS'unlock_bits'
p1042
S'0x3F'
p1043
ssS'build'
p1044
(dp1045
S'core'
p1046
S'arduino'
p1047
sS'mcu'
p1048
S'atmega168'
p1049
sS'f_cpu'
p1050
S'16000000L'
p1051
sS'variant'
p1052
S'standard'
p1053
ssS'name'
p1054
S'Arduino NG or older w/ ATmega168'
p1055
sS'upload'
p1056
(dp1057
S'speed'
p1058
S'19200'
p1059
sS'maximum_size'
p1060
S'14336'
p1061
sS'protocol'
p1062
S'arduino'
p1063
ssaa(lp1064
S'atmega8'
p1065
a(dp1066
S'bootloader'
p1067
(dp1068
S'high_fuses'
p1069
S'0xca'
p1070
sS'low_fuses'
p1071
S'0xdf'
p1072
sS'lock_bits'
p1073
S'0x0F'
p1074
sS'file'
p1075
S'ATmegaBOOT-prod-firmware-2009-11-07.hex'
p1076
sS'path'
p1077
S'atmega8'
p1078
sS'unlock_bits'
p1079
S'0x3F'
p1080
ssS'build'
p1081
(dp1082
S'core'
p1083
S'arduino'
p1084
sS'mcu'
p1085
S'atmega8'
p1086
sS'f_cpu'
p1087
S'16000000L'
p1088
sS'variant'
p1089
S'standard'
p1090
ssS'name'
p1091
S'Arduino NG or older w/ ATmega8'
p1092
sS'upload'
p1093
(dp1094
S'speed'
p1095
S'19200'
p1096
sS'maximum_size'
p1097
S'7168'
p1098
sS'protocol'
p1099
S'arduino'
p1100
ssaa(lp1101
S'robotControl'
p1102
a(dp1103
S'bootloader'
p1104
(dp1105
S'extended_fuses'
p1106
S'0xcb'
p1107
sS'high_fuses'
p1108
S'0xd8'
p1109
sS'low_fuses'
p1110
S'0xff'
p1111
sS'lock_bits'
p1112
S'0x2F'
p1113
sS'file'
p1114
S'Caterina-Robot-Control.hex'
p1115
sS'path'
p1116
S'caterina-Arduino_Robot'
p1117
sS'unlock_bits'
p1118
S'0x3F'
p1119
ssS'build'
p1120
(dp1121
S'core'
p1122
S'robot'
p1123
sS'f_cpu'
p1124
S'16000000L'
p1125
sS'vid'
p1126
S'0x2341'
p1127
sS'pid'
p1128
S'0x8038'
p1129
sS'variant'
p1130
S'robot_control'
p1131
sS'mcu'
p1132
S'atmega32u4'
p1133
ssS'name'
p1134
S'Arduino Robot Control'
p1135
sS'upload'
p1136
(dp1137
S'speed'
p1138
S'57600'
p1139
sS'maximum_size'
p1140
S'28672'
p1141
sS'protocol'
p1142
S'avr109'
p1143
sS'disable_flushing'
p1144
S'true'
p1145
ssaa(lp1146
S'robotMotor'
p1147
a(dp1148
S'bootloader'
p1149
(dp1150
S'extended_fuses'
p1151
S'0xcb'
p1152
sS'high_fuses'
p1153
S'0xd8'
p1154
sS'low_fuses'
p1155
S'0xff'
p1156
sS'lock_bits'
p1157
S'0x2F'
p1158
sS'file'
p1159
S'Caterina-Robot-Motor.hex'
p1160
sS'path'
p1161
S'caterina-Arduino_Robot'
p1162
sS'unlock_bits'
p1163
S'0x3F'
p1164
ssS'build'
p1165
(dp1166
S'core'
p1167
S'robot'
p1168
sS'f_cpu'
p1169
S'16000000L'
p1170
sS'vid'
p1171
S'0x2341'
p1172
sS'pid'
p1173
S'0x8039'
p1174
sS'variant'
p1175
S'robot_motor'
p1176
sS'mcu'
p1177
S'atmega32u4'
p1178
ssS'name'
p1179
S'Arduino Robot Motor'
p1180
sS'upload'
p1181
(dp1182
S'speed'
p1183
S'57600'
p1184
sS'maximum_size'
p1185
S'28672'
p1186
sS'protocol'
p1187
S'avr109'
p1188
sS'disable_flushing'
p1189
S'true'
p1190
ssaatp1191
Rp1192
(dp1193
S'default'
p1194
S'uno'
p1195
sbtp1196
a(S'cxx'
p1197
S'/Applications/Arduino.app/Contents/Resources/Java/hardware/tools/avr/bin/avr-g++'
p1198
tp1199
a.