(lp0
(S'cppflags'
p1
ccopy_reg
_reconstructor
p2
(cino.utils
SpaceList
p3
c__builtin__
list
p4
(lp5
S'-mmcu=atmega328p'
p6
aS'-DF_CPU=16000000L'
p7
aS'-DARDUINO=105'
p8
aS'-I/Applications/Arduino.app/Contents/Resources/Java/hardware/arduino/cores/arduino'
p9
aS'-ffunction-sections'
p10
aS'-fdata-sections'
p11
aS'-g'
p12
aS'-Os'
p13
aS'-w'
p14
aS'-I/Applications/Arduino.app/Contents/Resources/Java/hardware/arduino/variants/standard'
p15
aS'-I/Applications/Arduino.app/Contents/Resources/Java/hardware/arduino/cores/arduino'
p16
aS'-I/Applications/Arduino.app/Contents/Resources/Java/hardware/arduino/cores/arduino/avr-libc'
p17
atp18
Rp19
tp20
a(S'version.txt'
p21
S'/Applications/Arduino.app/Contents/Resources/Java/lib/version.txt'
p22
tp23
a(S'used_libs'
p24
(lp25
S'/Applications/Arduino.app/Contents/Resources/Java/hardware/arduino/cores/arduino'
p26
atp27
a(S'cc'
p28
S'/Applications/Arduino.app/Contents/Resources/Java/hardware/tools/avr/bin/avr-gcc'
p29
tp30
a(S'make'
p31
S'/Applications/Arduino.app/Contents/Resources/Java/hardware/tools/avr/bin/make'
p32
tp33
a(S'build_dir'
p34
S'.build/uno'
p35
tp36
a(S'arduino_core_dir'
p37
g26
tp38
a(S'boards.txt'
p39
S'/Applications/Arduino.app/Contents/Resources/Java/hardware/arduino/boards.txt'
p40
tp41
a(S'cxxflags'
p42
g2
(g3
g4
(lp43
S'-fno-exceptions'
p44
atp45
Rp46
tp47
a(S'arduino_variants_dir'
p48
S'/Applications/Arduino.app/Contents/Resources/Java/hardware/arduino/variants'
p49
tp50
a(S'deps'
p51
g2
(g3
g4
(lp52
S'.build/uno/src/dependencies.d'
p53
aS'.build/uno/arduino/dependencies.d'
p54
atp55
Rp56
tp57
a(S'ar'
p58
S'/Applications/Arduino.app/Contents/Resources/Java/hardware/tools/avr/bin/avr-ar'
p59
tp60
a(S'names'
p61
(dp62
S'cpp'
p63
S'%s.cpp'
p64
sS'obj'
p65
S'%s.o'
p66
sS'deps'
p67
S'%s.d'
p68
sS'lib'
p69
S'lib%s.a'
p70
stp71
a(S'cflags'
p72
g2
(g3
g4
(lp73
tp74
Rp75
tp76
a(S'ldflags'
p77
g2
(g3
g4
(lp78
g6
aS'-Wl,-Os'
p79
aS'-Wl,--gc-sections'
p80
atp81
Rp82
tp83
a(S'arduino_libraries_dir'
p84
S'/Applications/Arduino.app/Contents/Resources/Java/libraries'
p85
tp86
a(S'arduino_lib_version'
p87
g2
(cino.environment
Version
p88
c__builtin__
tuple
p89
(I1
I0
I5
tp90
tp91
Rp92
tp93
a(S'objcopy'
p94
S'/Applications/Arduino.app/Contents/Resources/Java/hardware/tools/avr/bin/avr-objcopy'
p95
tp96
a(S'board_models'
p97
cino.environment
BoardModels
p98
((lp99
(lp100
S'uno'
p101
a(dp102
S'bootloader'
p103
(dp104
S'extended_fuses'
p105
S'0x05'
p106
sS'high_fuses'
p107
S'0xde'
p108
sS'low_fuses'
p109
S'0xff'
p110
sS'lock_bits'
p111
S'0x0F'
p112
sS'file'
p113
S'optiboot_atmega328.hex'
p114
sS'path'
p115
S'optiboot'
p116
sS'unlock_bits'
p117
S'0x3F'
p118
ssS'upload'
p119
(dp120
S'speed'
p121
S'115200'
p122
sS'maximum_size'
p123
S'32256'
p124
sS'protocol'
p125
S'arduino'
p126
ssS'name'
p127
S'Arduino Uno'
p128
sS'build'
p129
(dp130
S'core'
p131
S'arduino'
p132
sS'mcu'
p133
S'atmega328p'
p134
sS'f_cpu'
p135
S'16000000L'
p136
sS'variant'
p137
S'standard'
p138
ssaa(lp139
S'atmega328'
p140
a(dp141
S'bootloader'
p142
(dp143
S'extended_fuses'
p144
S'0x05'
p145
sS'high_fuses'
p146
S'0xDA'
p147
sS'low_fuses'
p148
S'0xFF'
p149
sS'lock_bits'
p150
S'0x0F'
p151
sS'file'
p152
S'ATmegaBOOT_168_atmega328.hex'
p153
sS'path'
p154
S'atmega'
p155
sS'unlock_bits'
p156
S'0x3F'
p157
ssS'upload'
p158
(dp159
S'speed'
p160
S'57600'
p161
sS'maximum_size'
p162
S'30720'
p163
sS'protocol'
p164
S'arduino'
p165
ssS'name'
p166
S'Arduino Duemilanove w/ ATmega328'
p167
sS'build'
p168
(dp169
S'core'
p170
S'arduino'
p171
sS'mcu'
p172
S'atmega328p'
p173
sS'f_cpu'
p174
S'16000000L'
p175
sS'variant'
p176
S'standard'
p177
ssaa(lp178
S'diecimila'
p179
a(dp180
S'bootloader'
p181
(dp182
S'extended_fuses'
p183
S'0x00'
p184
sS'high_fuses'
p185
S'0xdd'
p186
sS'low_fuses'
p187
S'0xff'
p188
sS'lock_bits'
p189
S'0x0F'
p190
sS'file'
p191
S'ATmegaBOOT_168_diecimila.hex'
p192
sS'path'
p193
S'atmega'
p194
sS'unlock_bits'
p195
S'0x3F'
p196
ssS'upload'
p197
(dp198
S'speed'
p199
S'19200'
p200
sS'maximum_size'
p201
S'14336'
p202
sS'protocol'
p203
S'arduino'
p204
ssS'name'
p205
S'Arduino Diecimila or Duemilanove w/ ATmega168'
p206
sS'build'
p207
(dp208
S'core'
p209
S'arduino'
p210
sS'mcu'
p211
S'atmega168'
p212
sS'f_cpu'
p213
S'16000000L'
p214
sS'variant'
p215
S'standard'
p216
ssaa(lp217
S'nano328'
p218
a(dp219
S'bootloader'
p220
(dp221
S'extended_fuses'
p222
S'0x05'
p223
sS'high_fuses'
p224
S'0xDA'
p225
sS'low_fuses'
p226
S'0xFF'
p227
sS'lock_bits'
p228
S'0x0F'
p229
sS'file'
p230
S'ATmegaBOOT_168_atmega328.hex'
p231
sS'path'
p232
S'atmega'
p233
sS'unlock_bits'
p234
S'0x3F'
p235
ssS'upload'
p236
(dp237
S'speed'
p238
S'57600'
p239
sS'maximum_size'
p240
S'30720'
p241
sS'protocol'
p242
S'arduino'
p243
ssS'name'
p244
S'Arduino Nano w/ ATmega328'
p245
sS'build'
p246
(dp247
S'core'
p248
S'arduino'
p249
sS'mcu'
p250
S'atmega328p'
p251
sS'f_cpu'
p252
S'16000000L'
p253
sS'variant'
p254
S'eightanaloginputs'
p255
ssaa(lp256
S'nano'
p257
a(dp258
S'bootloader'
p259
(dp260
S'extended_fuses'
p261
S'0x00'
p262
sS'high_fuses'
p263
S'0xdd'
p264
sS'low_fuses'
p265
S'0xff'
p266
sS'lock_bits'
p267
S'0x0F'
p268
sS'file'
p269
S'ATmegaBOOT_168_diecimila.hex'
p270
sS'path'
p271
S'atmega'
p272
sS'unlock_bits'
p273
S'0x3F'
p274
ssS'upload'
p275
(dp276
S'speed'
p277
S'19200'
p278
sS'maximum_size'
p279
S'14336'
p280
sS'protocol'
p281
S'arduino'
p282
ssS'name'
p283
S'Arduino Nano w/ ATmega168'
p284
sS'build'
p285
(dp286
S'core'
p287
S'arduino'
p288
sS'mcu'
p289
S'atmega168'
p290
sS'f_cpu'
p291
S'16000000L'
p292
sS'variant'
p293
S'eightanaloginputs'
p294
ssaa(lp295
S'mega2560'
p296
a(dp297
S'bootloader'
p298
(dp299
S'extended_fuses'
p300
S'0xFD'
p301
sS'high_fuses'
p302
S'0xD8'
p303
sS'low_fuses'
p304
S'0xFF'
p305
sS'lock_bits'
p306
S'0x0F'
p307
sS'file'
p308
S'stk500boot_v2_mega2560.hex'
p309
sS'path'
p310
S'stk500v2'
p311
sS'unlock_bits'
p312
S'0x3F'
p313
ssS'upload'
p314
(dp315
S'speed'
p316
S'115200'
p317
sS'maximum_size'
p318
S'258048'
p319
sS'protocol'
p320
S'wiring'
p321
ssS'name'
p322
S'Arduino Mega 2560 or Mega ADK'
p323
sS'build'
p324
(dp325
S'core'
p326
S'arduino'
p327
sS'mcu'
p328
S'atmega2560'
p329
sS'f_cpu'
p330
S'16000000L'
p331
sS'variant'
p332
S'mega'
p333
ssaa(lp334
S'mega'
p335
a(dp336
S'bootloader'
p337
(dp338
S'extended_fuses'
p339
S'0xF5'
p340
sS'high_fuses'
p341
S'0xDA'
p342
sS'low_fuses'
p343
S'0xFF'
p344
sS'lock_bits'
p345
S'0x0F'
p346
sS'file'
p347
S'ATmegaBOOT_168_atmega1280.hex'
p348
sS'path'
p349
S'atmega'
p350
sS'unlock_bits'
p351
S'0x3F'
p352
ssS'upload'
p353
(dp354
S'speed'
p355
S'57600'
p356
sS'maximum_size'
p357
S'126976'
p358
sS'protocol'
p359
S'arduino'
p360
ssS'name'
p361
S'Arduino Mega (ATmega1280)'
p362
sS'build'
p363
(dp364
S'core'
p365
S'arduino'
p366
sS'mcu'
p367
S'atmega1280'
p368
sS'f_cpu'
p369
S'16000000L'
p370
sS'variant'
p371
S'mega'
p372
ssaa(lp373
S'leonardo'
p374
a(dp375
S'bootloader'
p376
(dp377
S'extended_fuses'
p378
S'0xcb'
p379
sS'high_fuses'
p380
S'0xd8'
p381
sS'low_fuses'
p382
S'0xff'
p383
sS'lock_bits'
p384
S'0x2F'
p385
sS'file'
p386
S'Caterina-Leonardo.hex'
p387
sS'path'
p388
S'caterina'
p389
sS'unlock_bits'
p390
S'0x3F'
p391
ssS'upload'
p392
(dp393
S'speed'
p394
S'57600'
p395
sS'maximum_size'
p396
S'28672'
p397
sS'protocol'
p398
S'avr109'
p399
sS'disable_flushing'
p400
S'true'
p401
ssS'name'
p402
S'Arduino Leonardo'
p403
sS'build'
p404
(dp405
S'core'
p406
S'arduino'
p407
sS'f_cpu'
p408
S'16000000L'
p409
sS'vid'
p410
S'0x2341'
p411
sS'pid'
p412
S'0x8036'
p413
sS'variant'
p414
S'leonardo'
p415
sS'mcu'
p416
S'atmega32u4'
p417
ssaa(lp418
S'esplora'
p419
a(dp420
S'bootloader'
p421
(dp422
S'extended_fuses'
p423
S'0xcb'
p424
sS'high_fuses'
p425
S'0xd8'
p426
sS'low_fuses'
p427
S'0xff'
p428
sS'lock_bits'
p429
S'0x2F'
p430
sS'file'
p431
S'Caterina-Esplora.hex'
p432
sS'path'
p433
S'caterina'
p434
sS'unlock_bits'
p435
S'0x3F'
p436
ssS'upload'
p437
(dp438
S'speed'
p439
S'57600'
p440
sS'maximum_size'
p441
S'28672'
p442
sS'protocol'
p443
S'avr109'
p444
sS'disable_flushing'
p445
S'true'
p446
ssS'name'
p447
S'Arduino Esplora'
p448
sS'build'
p449
(dp450
S'core'
p451
S'arduino'
p452
sS'f_cpu'
p453
S'16000000L'
p454
sS'vid'
p455
S'0x2341'
p456
sS'pid'
p457
S'0x803C'
p458
sS'variant'
p459
S'leonardo'
p460
sS'mcu'
p461
S'atmega32u4'
p462
ssaa(lp463
S'micro'
p464
a(dp465
S'bootloader'
p466
(dp467
S'extended_fuses'
p468
S'0xcb'
p469
sS'high_fuses'
p470
S'0xd8'
p471
sS'low_fuses'
p472
S'0xff'
p473
sS'lock_bits'
p474
S'0x2F'
p475
sS'file'
p476
S'Caterina-Micro.hex'
p477
sS'path'
p478
S'caterina'
p479
sS'unlock_bits'
p480
S'0x3F'
p481
ssS'upload'
p482
(dp483
S'speed'
p484
S'57600'
p485
sS'maximum_size'
p486
S'28672'
p487
sS'protocol'
p488
S'avr109'
p489
sS'disable_flushing'
p490
S'true'
p491
ssS'name'
p492
S'Arduino Micro'
p493
sS'build'
p494
(dp495
S'core'
p496
S'arduino'
p497
sS'f_cpu'
p498
S'16000000L'
p499
sS'vid'
p500
S'0x2341'
p501
sS'pid'
p502
S'0x8037'
p503
sS'variant'
p504
S'micro'
p505
sS'mcu'
p506
S'atmega32u4'
p507
ssaa(lp508
S'mini328'
p509
a(dp510
S'bootloader'
p511
(dp512
S'extended_fuses'
p513
S'0x05'
p514
sS'high_fuses'
p515
S'0xd8'
p516
sS'low_fuses'
p517
S'0xff'
p518
sS'lock_bits'
p519
S'0x0F'
p520
sS'file'
p521
S'optiboot_atmega328-Mini.hex'
p522
sS'path'
p523
S'optiboot'
p524
sS'unlock_bits'
p525
S'0x3F'
p526
ssS'upload'
p527
(dp528
S'speed'
p529
S'115200'
p530
sS'maximum_size'
p531
S'28672'
p532
sS'protocol'
p533
S'arduino'
p534
ssS'name'
p535
S'Arduino Mini w/ ATmega328'
p536
sS'build'
p537
(dp538
S'core'
p539
S'arduino'
p540
sS'mcu'
p541
S'atmega328p'
p542
sS'f_cpu'
p543
S'16000000L'
p544
sS'variant'
p545
S'eightanaloginputs'
p546
ssaa(lp547
S'mini'
p548
a(dp549
S'bootloader'
p550
(dp551
S'extended_fuses'
p552
S'0x00'
p553
sS'high_fuses'
p554
S'0xdd'
p555
sS'low_fuses'
p556
S'0xff'
p557
sS'lock_bits'
p558
S'0x0F'
p559
sS'file'
p560
S'ATmegaBOOT_168_ng.hex'
p561
sS'path'
p562
S'atmega'
p563
sS'unlock_bits'
p564
S'0x3F'
p565
ssS'upload'
p566
(dp567
S'speed'
p568
S'19200'
p569
sS'maximum_size'
p570
S'14336'
p571
sS'protocol'
p572
S'arduino'
p573
ssS'name'
p574
S'Arduino Mini w/ ATmega168'
p575
sS'build'
p576
(dp577
S'core'
p578
S'arduino'
p579
sS'mcu'
p580
S'atmega168'
p581
sS'f_cpu'
p582
S'16000000L'
p583
sS'variant'
p584
S'eightanaloginputs'
p585
ssaa(lp586
S'ethernet'
p587
a(dp588
S'bootloader'
p589
(dp590
S'extended_fuses'
p591
S'0x05'
p592
sS'high_fuses'
p593
S'0xde'
p594
sS'low_fuses'
p595
S'0xff'
p596
sS'lock_bits'
p597
S'0x0F'
p598
sS'file'
p599
S'optiboot_atmega328.hex'
p600
sS'path'
p601
S'optiboot'
p602
sS'unlock_bits'
p603
S'0x3F'
p604
ssS'upload'
p605
(dp606
S'speed'
p607
S'115200'
p608
sS'maximum_size'
p609
S'32256'
p610
sS'protocol'
p611
S'arduino'
p612
ssS'name'
p613
S'Arduino Ethernet'
p614
sS'build'
p615
(dp616
S'f_cpu'
p617
S'16000000L'
p618
sS'mcu'
p619
S'atmega328p'
p620
sS'variant'
p621
S'standard'
p622
sS'core'
p623
S'arduino'
p624
ssaa(lp625
S'fio'
p626
a(dp627
S'bootloader'
p628
(dp629
S'extended_fuses'
p630
S'0x05'
p631
sS'high_fuses'
p632
S'0xDA'
p633
sS'low_fuses'
p634
S'0xFF'
p635
sS'lock_bits'
p636
S'0x0F'
p637
sS'file'
p638
S'ATmegaBOOT_168_atmega328_pro_8MHz.hex'
p639
sS'path'
p640
S'arduino:atmega'
p641
sS'unlock_bits'
p642
S'0x3F'
p643
ssS'upload'
p644
(dp645
S'speed'
p646
S'57600'
p647
sS'maximum_size'
p648
S'30720'
p649
sS'protocol'
p650
S'arduino'
p651
ssS'name'
p652
S'Arduino Fio'
p653
sS'build'
p654
(dp655
S'core'
p656
S'arduino'
p657
sS'mcu'
p658
S'atmega328p'
p659
sS'f_cpu'
p660
S'8000000L'
p661
sS'variant'
p662
S'eightanaloginputs'
p663
ssaa(lp664
S'bt328'
p665
a(dp666
S'bootloader'
p667
(dp668
S'extended_fuses'
p669
S'0x05'
p670
sS'high_fuses'
p671
S'0xd8'
p672
sS'low_fuses'
p673
S'0xff'
p674
sS'lock_bits'
p675
S'0x0F'
p676
sS'file'
p677
S'ATmegaBOOT_168_atmega328_bt.hex'
p678
sS'path'
p679
S'bt'
p680
sS'unlock_bits'
p681
S'0x3F'
p682
ssS'upload'
p683
(dp684
S'speed'
p685
S'19200'
p686
sS'maximum_size'
p687
S'28672'
p688
sS'protocol'
p689
S'arduino'
p690
sS'disable_flushing'
p691
S'true'
p692
ssS'name'
p693
S'Arduino BT w/ ATmega328'
p694
sS'build'
p695
(dp696
S'core'
p697
S'arduino'
p698
sS'mcu'
p699
S'atmega328p'
p700
sS'f_cpu'
p701
S'16000000L'
p702
sS'variant'
p703
S'eightanaloginputs'
p704
ssaa(lp705
S'bt'
p706
a(dp707
S'bootloader'
p708
(dp709
S'extended_fuses'
p710
S'0x00'
p711
sS'high_fuses'
p712
S'0xdd'
p713
sS'low_fuses'
p714
S'0xff'
p715
sS'lock_bits'
p716
S'0x0F'
p717
sS'file'
p718
S'ATmegaBOOT_168.hex'
p719
sS'path'
p720
S'bt'
p721
sS'unlock_bits'
p722
S'0x3F'
p723
ssS'upload'
p724
(dp725
S'speed'
p726
S'19200'
p727
sS'maximum_size'
p728
S'14336'
p729
sS'protocol'
p730
S'arduino'
p731
sS'disable_flushing'
p732
S'true'
p733
ssS'name'
p734
S'Arduino BT w/ ATmega168'
p735
sS'build'
p736
(dp737
S'core'
p738
S'arduino'
p739
sS'mcu'
p740
S'atmega168'
p741
sS'f_cpu'
p742
S'16000000L'
p743
sS'variant'
p744
S'eightanaloginputs'
p745
ssaa(lp746
S'LilyPadUSB'
p747
a(dp748
S'bootloader'
p749
(dp750
S'extended_fuses'
p751
S'0xce'
p752
sS'high_fuses'
p753
S'0xd8'
p754
sS'low_fuses'
p755
S'0xff'
p756
sS'lock_bits'
p757
S'0x2F'
p758
sS'file'
p759
S'Caterina-LilyPadUSB.hex'
p760
sS'path'
p761
S'caterina-LilyPadUSB'
p762
sS'unlock_bits'
p763
S'0x3F'
p764
ssS'upload'
p765
(dp766
S'speed'
p767
S'57600'
p768
sS'maximum_size'
p769
S'28672'
p770
sS'protocol'
p771
S'avr109'
p772
sS'disable_flushing'
p773
S'true'
p774
ssS'name'
p775
S'LilyPad Arduino USB'
p776
sS'build'
p777
(dp778
S'core'
p779
S'arduino'
p780
sS'f_cpu'
p781
S'8000000L'
p782
sS'vid'
p783
S'0x1B4F'
p784
sS'pid'
p785
S'0x9208'
p786
sS'variant'
p787
S'leonardo'
p788
sS'mcu'
p789
S'atmega32u4'
p790
ssaa(lp791
S'lilypad328'
p792
a(dp793
S'bootloader'
p794
(dp795
S'extended_fuses'
p796
S'0x05'
p797
sS'high_fuses'
p798
S'0xDA'
p799
sS'low_fuses'
p800
S'0xFF'
p801
sS'lock_bits'
p802
S'0x0F'
p803
sS'file'
p804
S'ATmegaBOOT_168_atmega328_pro_8MHz.hex'
p805
sS'path'
p806
S'atmega'
p807
sS'unlock_bits'
p808
S'0x3F'
p809
ssS'upload'
p810
(dp811
S'speed'
p812
S'57600'
p813
sS'maximum_size'
p814
S'30720'
p815
sS'protocol'
p816
S'arduino'
p817
ssS'name'
p818
S'LilyPad Arduino w/ ATmega328'
p819
sS'build'
p820
(dp821
S'core'
p822
S'arduino'
p823
sS'mcu'
p824
S'atmega328p'
p825
sS'f_cpu'
p826
S'8000000L'
p827
sS'variant'
p828
S'standard'
p829
ssaa(lp830
S'lilypad'
p831
a(dp832
S'bootloader'
p833
(dp834
S'extended_fuses'
p835
S'0x00'
p836
sS'high_fuses'
p837
S'0xdd'
p838
sS'low_fuses'
p839
S'0xe2'
p840
sS'lock_bits'
p841
S'0x0F'
p842
sS'file'
p843
S'LilyPadBOOT_168.hex'
p844
sS'path'
p845
S'lilypad'
p846
sS'unlock_bits'
p847
S'0x3F'
p848
ssS'upload'
p849
(dp850
S'speed'
p851
S'19200'
p852
sS'maximum_size'
p853
S'14336'
p854
sS'protocol'
p855
S'arduino'
p856
ssS'name'
p857
S'LilyPad Arduino w/ ATmega168'
p858
sS'build'
p859
(dp860
S'core'
p861
S'arduino'
p862
sS'mcu'
p863
S'atmega168'
p864
sS'f_cpu'
p865
S'8000000L'
p866
sS'variant'
p867
S'standard'
p868
ssaa(lp869
S'pro5v328'
p870
a(dp871
S'bootloader'
p872
(dp873
S'extended_fuses'
p874
S'0x05'
p875
sS'high_fuses'
p876
S'0xDA'
p877
sS'low_fuses'
p878
S'0xFF'
p879
sS'lock_bits'
p880
S'0x0F'
p881
sS'file'
p882
S'ATmegaBOOT_168_atmega328.hex'
p883
sS'path'
p884
S'atmega'
p885
sS'unlock_bits'
p886
S'0x3F'
p887
ssS'upload'
p888
(dp889
S'speed'
p890
S'57600'
p891
sS'maximum_size'
p892
S'30720'
p893
sS'protocol'
p894
S'arduino'
p895
ssS'name'
p896
S'Arduino Pro or Pro Mini (5V, 16 MHz) w/ ATmega328'
p897
sS'build'
p898
(dp899
S'core'
p900
S'arduino'
p901
sS'mcu'
p902
S'atmega328p'
p903
sS'f_cpu'
p904
S'16000000L'
p905
sS'variant'
p906
S'standard'
p907
ssaa(lp908
S'pro5v'
p909
a(dp910
S'bootloader'
p911
(dp912
S'extended_fuses'
p913
S'0x00'
p914
sS'high_fuses'
p915
S'0xdd'
p916
sS'low_fuses'
p917
S'0xff'
p918
sS'lock_bits'
p919
S'0x0F'
p920
sS'file'
p921
S'ATmegaBOOT_168_diecimila.hex'
p922
sS'path'
p923
S'atmega'
p924
sS'unlock_bits'
p925
S'0x3F'
p926
ssS'upload'
p927
(dp928
S'speed'
p929
S'19200'
p930
sS'maximum_size'
p931
S'14336'
p932
sS'protocol'
p933
S'arduino'
p934
ssS'name'
p935
S'Arduino Pro or Pro Mini (5V, 16 MHz) w/ ATmega168'
p936
sS'build'
p937
(dp938
S'core'
p939
S'arduino'
p940
sS'mcu'
p941
S'atmega168'
p942
sS'f_cpu'
p943
S'16000000L'
p944
sS'variant'
p945
S'standard'
p946
ssaa(lp947
S'pro328'
p948
a(dp949
S'bootloader'
p950
(dp951
S'extended_fuses'
p952
S'0x05'
p953
sS'high_fuses'
p954
S'0xDA'
p955
sS'low_fuses'
p956
S'0xFF'
p957
sS'lock_bits'
p958
S'0x0F'
p959
sS'file'
p960
S'ATmegaBOOT_168_atmega328_pro_8MHz.hex'
p961
sS'path'
p962
S'atmega'
p963
sS'unlock_bits'
p964
S'0x3F'
p965
ssS'upload'
p966
(dp967
S'speed'
p968
S'57600'
p969
sS'maximum_size'
p970
S'30720'
p971
sS'protocol'
p972
S'arduino'
p973
ssS'name'
p974
S'Arduino Pro or Pro Mini (3.3V, 8 MHz) w/ ATmega328'
p975
sS'build'
p976
(dp977
S'core'
p978
S'arduino'
p979
sS'mcu'
p980
S'atmega328p'
p981
sS'f_cpu'
p982
S'8000000L'
p983
sS'variant'
p984
S'standard'
p985
ssaa(lp986
S'pro'
p987
a(dp988
S'bootloader'
p989
(dp990
S'extended_fuses'
p991
S'0x00'
p992
sS'high_fuses'
p993
S'0xdd'
p994
sS'low_fuses'
p995
S'0xc6'
p996
sS'lock_bits'
p997
S'0x0F'
p998
sS'file'
p999
S'ATmegaBOOT_168_pro_8MHz.hex'
p1000
sS'path'
p1001
S'atmega'
p1002
sS'unlock_bits'
p1003
S'0x3F'
p1004
ssS'upload'
p1005
(dp1006
S'speed'
p1007
S'19200'
p1008
sS'maximum_size'
p1009
S'14336'
p1010
sS'protocol'
p1011
S'arduino'
p1012
ssS'name'
p1013
S'Arduino Pro or Pro Mini (3.3V, 8 MHz) w/ ATmega168'
p1014
sS'build'
p1015
(dp1016
S'core'
p1017
S'arduino'
p1018
sS'mcu'
p1019
S'atmega168'
p1020
sS'f_cpu'
p1021
S'8000000L'
p1022
sS'variant'
p1023
S'standard'
p1024
ssaa(lp1025
S'atmega168'
p1026
a(dp1027
S'bootloader'
p1028
(dp1029
S'extended_fuses'
p1030
S'0x00'
p1031
sS'high_fuses'
p1032
S'0xdd'
p1033
sS'low_fuses'
p1034
S'0xff'
p1035
sS'lock_bits'
p1036
S'0x0F'
p1037
sS'file'
p1038
S'ATmegaBOOT_168_ng.hex'
p1039
sS'path'
p1040
S'atmega'
p1041
sS'unlock_bits'
p1042
S'0x3F'
p1043
ssS'upload'
p1044
(dp1045
S'speed'
p1046
S'19200'
p1047
sS'maximum_size'
p1048
S'14336'
p1049
sS'protocol'
p1050
S'arduino'
p1051
ssS'name'
p1052
S'Arduino NG or older w/ ATmega168'
p1053
sS'build'
p1054
(dp1055
S'core'
p1056
S'arduino'
p1057
sS'mcu'
p1058
S'atmega168'
p1059
sS'f_cpu'
p1060
S'16000000L'
p1061
sS'variant'
p1062
S'standard'
p1063
ssaa(lp1064
S'atmega8'
p1065
a(dp1066
S'bootloader'
p1067
(dp1068
S'high_fuses'
p1069
S'0xca'
p1070
sS'low_fuses'
p1071
S'0xdf'
p1072
sS'lock_bits'
p1073
S'0x0F'
p1074
sS'file'
p1075
S'ATmegaBOOT-prod-firmware-2009-11-07.hex'
p1076
sS'path'
p1077
S'atmega8'
p1078
sS'unlock_bits'
p1079
S'0x3F'
p1080
ssS'upload'
p1081
(dp1082
S'speed'
p1083
S'19200'
p1084
sS'maximum_size'
p1085
S'7168'
p1086
sS'protocol'
p1087
S'arduino'
p1088
ssS'name'
p1089
S'Arduino NG or older w/ ATmega8'
p1090
sS'build'
p1091
(dp1092
S'core'
p1093
S'arduino'
p1094
sS'mcu'
p1095
S'atmega8'
p1096
sS'f_cpu'
p1097
S'16000000L'
p1098
sS'variant'
p1099
S'standard'
p1100
ssaa(lp1101
S'robotControl'
p1102
a(dp1103
S'bootloader'
p1104
(dp1105
S'extended_fuses'
p1106
S'0xcb'
p1107
sS'high_fuses'
p1108
S'0xd8'
p1109
sS'low_fuses'
p1110
S'0xff'
p1111
sS'lock_bits'
p1112
S'0x2F'
p1113
sS'file'
p1114
S'Caterina-Robot-Control.hex'
p1115
sS'path'
p1116
S'caterina-Arduino_Robot'
p1117
sS'unlock_bits'
p1118
S'0x3F'
p1119
ssS'upload'
p1120
(dp1121
S'speed'
p1122
S'57600'
p1123
sS'maximum_size'
p1124
S'28672'
p1125
sS'protocol'
p1126
S'avr109'
p1127
sS'disable_flushing'
p1128
S'true'
p1129
ssS'name'
p1130
S'Arduino Robot Control'
p1131
sS'build'
p1132
(dp1133
S'core'
p1134
S'robot'
p1135
sS'f_cpu'
p1136
S'16000000L'
p1137
sS'vid'
p1138
S'0x2341'
p1139
sS'pid'
p1140
S'0x8038'
p1141
sS'variant'
p1142
S'robot_control'
p1143
sS'mcu'
p1144
S'atmega32u4'
p1145
ssaa(lp1146
S'robotMotor'
p1147
a(dp1148
S'bootloader'
p1149
(dp1150
S'extended_fuses'
p1151
S'0xcb'
p1152
sS'high_fuses'
p1153
S'0xd8'
p1154
sS'low_fuses'
p1155
S'0xff'
p1156
sS'lock_bits'
p1157
S'0x2F'
p1158
sS'file'
p1159
S'Caterina-Robot-Motor.hex'
p1160
sS'path'
p1161
S'caterina-Arduino_Robot'
p1162
sS'unlock_bits'
p1163
S'0x3F'
p1164
ssS'upload'
p1165
(dp1166
S'speed'
p1167
S'57600'
p1168
sS'maximum_size'
p1169
S'28672'
p1170
sS'protocol'
p1171
S'avr109'
p1172
sS'disable_flushing'
p1173
S'true'
p1174
ssS'name'
p1175
S'Arduino Robot Motor'
p1176
sS'build'
p1177
(dp1178
S'core'
p1179
S'robot'
p1180
sS'f_cpu'
p1181
S'16000000L'
p1182
sS'vid'
p1183
S'0x2341'
p1184
sS'pid'
p1185
S'0x8039'
p1186
sS'variant'
p1187
S'robot_motor'
p1188
sS'mcu'
p1189
S'atmega32u4'
p1190
ssaatp1191
Rp1192
(dp1193
S'default'
p1194
S'uno'
p1195
sbtp1196
a(S'cxx'
p1197
S'/Applications/Arduino.app/Contents/Resources/Java/hardware/tools/avr/bin/avr-g++'
p1198
tp1199
a.