(lp0
(S'cppflags'
p1
ccopy_reg
_reconstructor
p2
(cino.utils
SpaceList
p3
c__builtin__
list
p4
(lp5
S'-mmcu=atmega2560'
p6
aS'-DF_CPU=16000000L'
p7
aS'-DARDUINO=105'
p8
aS'-I/Applications/Arduino.app/Contents/Resources/Java/hardware/arduino/cores/arduino'
p9
aS'-ffunction-sections'
p10
aS'-fdata-sections'
p11
aS'-g'
p12
aS'-Os'
p13
aS'-w'
p14
aS'-I/Applications/Arduino.app/Contents/Resources/Java/hardware/arduino/variants/mega'
p15
aS'-Ilib/OneWire'
p16
aS'-Ilib/RTClib'
p17
aS'-Ilib/EEPROMEx'
p18
aS'-Ilib/EEPROMEx/Examples'
p19
aS'-Ilib/EEPROMEx/Examples/EEPROMEx'
p20
aS'-Ilib/EEPROMEx/Examples/EEPROMVar'
p21
aS'-Ilib/SD'
p22
aS'-Ilib/SD/utility'
p23
aS'-Ilib/DHT'
p24
aS'-Ilib/Wire'
p25
aS'-Ilib/Wire/utility'
p26
aS'-Ilib/SPI'
p27
aS'-I/Applications/Arduino.app/Contents/Resources/Java/hardware/arduino/cores/arduino'
p28
aS'-I/Applications/Arduino.app/Contents/Resources/Java/hardware/arduino/cores/arduino/avr-libc'
p29
atp30
Rp31
tp32
a(S'cxx'
p33
S'/Applications/Arduino.app/Contents/Resources/Java/hardware/tools/avr/bin/avr-g++'
p34
tp35
a(S'build_dir'
p36
S'.build/mega2560'
p37
tp38
a(S'avrdude'
p39
S'/Applications/Arduino.app/Contents/Resources/Java/hardware/tools/avr/bin/avrdude'
p40
tp41
a(S'ar'
p42
S'/Applications/Arduino.app/Contents/Resources/Java/hardware/tools/avr/bin/avr-ar'
p43
tp44
a(S'names'
p45
(dp46
S'cpp'
p47
S'%s.cpp'
p48
sS'obj'
p49
S'%s.o'
p50
sS'deps'
p51
S'%s.d'
p52
sS'lib'
p53
S'lib%s.a'
p54
stp55
a(S'ldflags'
p56
g2
(g3
g4
(lp57
g6
aS'-Wl,-Os'
p58
aS'-Wl,--gc-sections'
p59
atp60
Rp61
tp62
a(S'arduino_lib_version'
p63
g2
(cino.environment
Version
p64
c__builtin__
tuple
p65
(I1
I0
I5
tp66
tp67
Rp68
tp69
a(S'objcopy'
p70
S'/Applications/Arduino.app/Contents/Resources/Java/hardware/tools/avr/bin/avr-objcopy'
p71
tp72
a(S'board_models'
p73
cino.environment
BoardModels
p74
((lp75
(lp76
S'uno'
p77
a(dp78
S'build'
p79
(dp80
S'core'
p81
S'arduino'
p82
sS'mcu'
p83
S'atmega328p'
p84
sS'f_cpu'
p85
S'16000000L'
p86
sS'variant'
p87
S'standard'
p88
ssS'bootloader'
p89
(dp90
S'extended_fuses'
p91
S'0x05'
p92
sS'high_fuses'
p93
S'0xde'
p94
sS'low_fuses'
p95
S'0xff'
p96
sS'lock_bits'
p97
S'0x0F'
p98
sS'file'
p99
S'optiboot_atmega328.hex'
p100
sS'path'
p101
S'optiboot'
p102
sS'unlock_bits'
p103
S'0x3F'
p104
ssS'upload'
p105
(dp106
S'speed'
p107
S'115200'
p108
sS'maximum_size'
p109
S'32256'
p110
sS'protocol'
p111
S'arduino'
p112
ssS'name'
p113
S'Arduino Uno'
p114
sS'_coredir'
p115
S'/Applications/Arduino.app/Contents/Resources/Java/hardware/arduino'
p116
saa(lp117
S'atmega328'
p118
a(dp119
S'build'
p120
(dp121
S'core'
p122
S'arduino'
p123
sS'mcu'
p124
S'atmega328p'
p125
sS'f_cpu'
p126
S'16000000L'
p127
sS'variant'
p128
S'standard'
p129
ssS'bootloader'
p130
(dp131
S'extended_fuses'
p132
S'0x05'
p133
sS'high_fuses'
p134
S'0xDA'
p135
sS'low_fuses'
p136
S'0xFF'
p137
sS'lock_bits'
p138
S'0x0F'
p139
sS'file'
p140
S'ATmegaBOOT_168_atmega328.hex'
p141
sS'path'
p142
S'atmega'
p143
sS'unlock_bits'
p144
S'0x3F'
p145
ssS'upload'
p146
(dp147
S'speed'
p148
S'57600'
p149
sS'maximum_size'
p150
S'30720'
p151
sS'protocol'
p152
S'arduino'
p153
ssS'name'
p154
S'Arduino Duemilanove w/ ATmega328'
p155
sg115
S'/Applications/Arduino.app/Contents/Resources/Java/hardware/arduino'
p156
saa(lp157
S'diecimila'
p158
a(dp159
S'build'
p160
(dp161
S'core'
p162
S'arduino'
p163
sS'mcu'
p164
S'atmega168'
p165
sS'f_cpu'
p166
S'16000000L'
p167
sS'variant'
p168
S'standard'
p169
ssS'bootloader'
p170
(dp171
S'extended_fuses'
p172
S'0x00'
p173
sS'high_fuses'
p174
S'0xdd'
p175
sS'low_fuses'
p176
S'0xff'
p177
sS'lock_bits'
p178
S'0x0F'
p179
sS'file'
p180
S'ATmegaBOOT_168_diecimila.hex'
p181
sS'path'
p182
S'atmega'
p183
sS'unlock_bits'
p184
S'0x3F'
p185
ssS'upload'
p186
(dp187
S'speed'
p188
S'19200'
p189
sS'maximum_size'
p190
S'14336'
p191
sS'protocol'
p192
S'arduino'
p193
ssS'name'
p194
S'Arduino Diecimila or Duemilanove w/ ATmega168'
p195
sg115
S'/Applications/Arduino.app/Contents/Resources/Java/hardware/arduino'
p196
saa(lp197
S'nano328'
p198
a(dp199
S'build'
p200
(dp201
S'core'
p202
S'arduino'
p203
sS'mcu'
p204
S'atmega328p'
p205
sS'f_cpu'
p206
S'16000000L'
p207
sS'variant'
p208
S'eightanaloginputs'
p209
ssS'bootloader'
p210
(dp211
S'extended_fuses'
p212
S'0x05'
p213
sS'high_fuses'
p214
S'0xDA'
p215
sS'low_fuses'
p216
S'0xFF'
p217
sS'lock_bits'
p218
S'0x0F'
p219
sS'file'
p220
S'ATmegaBOOT_168_atmega328.hex'
p221
sS'path'
p222
S'atmega'
p223
sS'unlock_bits'
p224
S'0x3F'
p225
ssS'upload'
p226
(dp227
S'speed'
p228
S'57600'
p229
sS'maximum_size'
p230
S'30720'
p231
sS'protocol'
p232
S'arduino'
p233
ssS'name'
p234
S'Arduino Nano w/ ATmega328'
p235
sg115
S'/Applications/Arduino.app/Contents/Resources/Java/hardware/arduino'
p236
saa(lp237
S'nano'
p238
a(dp239
S'build'
p240
(dp241
S'core'
p242
S'arduino'
p243
sS'mcu'
p244
S'atmega168'
p245
sS'f_cpu'
p246
S'16000000L'
p247
sS'variant'
p248
S'eightanaloginputs'
p249
ssS'bootloader'
p250
(dp251
S'extended_fuses'
p252
S'0x00'
p253
sS'high_fuses'
p254
S'0xdd'
p255
sS'low_fuses'
p256
S'0xff'
p257
sS'lock_bits'
p258
S'0x0F'
p259
sS'file'
p260
S'ATmegaBOOT_168_diecimila.hex'
p261
sS'path'
p262
S'atmega'
p263
sS'unlock_bits'
p264
S'0x3F'
p265
ssS'upload'
p266
(dp267
S'speed'
p268
S'19200'
p269
sS'maximum_size'
p270
S'14336'
p271
sS'protocol'
p272
S'arduino'
p273
ssS'name'
p274
S'Arduino Nano w/ ATmega168'
p275
sg115
S'/Applications/Arduino.app/Contents/Resources/Java/hardware/arduino'
p276
saa(lp277
S'mega2560'
p278
a(dp279
S'build'
p280
(dp281
S'core'
p282
S'arduino'
p283
sS'mcu'
p284
S'atmega2560'
p285
sS'f_cpu'
p286
S'16000000L'
p287
sS'variant'
p288
S'mega'
p289
ssS'bootloader'
p290
(dp291
S'extended_fuses'
p292
S'0xFD'
p293
sS'high_fuses'
p294
S'0xD8'
p295
sS'low_fuses'
p296
S'0xFF'
p297
sS'lock_bits'
p298
S'0x0F'
p299
sS'file'
p300
S'stk500boot_v2_mega2560.hex'
p301
sS'path'
p302
S'stk500v2'
p303
sS'unlock_bits'
p304
S'0x3F'
p305
ssS'upload'
p306
(dp307
S'speed'
p308
S'115200'
p309
sS'maximum_size'
p310
S'258048'
p311
sS'protocol'
p312
S'wiring'
p313
ssS'name'
p314
S'Arduino Mega 2560 or Mega ADK'
p315
sg115
S'/Applications/Arduino.app/Contents/Resources/Java/hardware/arduino'
p316
saa(lp317
S'mega'
p318
a(dp319
S'build'
p320
(dp321
S'core'
p322
S'arduino'
p323
sS'mcu'
p324
S'atmega1280'
p325
sS'f_cpu'
p326
S'16000000L'
p327
sS'variant'
p328
S'mega'
p329
ssS'bootloader'
p330
(dp331
S'extended_fuses'
p332
S'0xF5'
p333
sS'high_fuses'
p334
S'0xDA'
p335
sS'low_fuses'
p336
S'0xFF'
p337
sS'lock_bits'
p338
S'0x0F'
p339
sS'file'
p340
S'ATmegaBOOT_168_atmega1280.hex'
p341
sS'path'
p342
S'atmega'
p343
sS'unlock_bits'
p344
S'0x3F'
p345
ssS'upload'
p346
(dp347
S'speed'
p348
S'57600'
p349
sS'maximum_size'
p350
S'126976'
p351
sS'protocol'
p352
S'arduino'
p353
ssS'name'
p354
S'Arduino Mega (ATmega1280)'
p355
sg115
S'/Applications/Arduino.app/Contents/Resources/Java/hardware/arduino'
p356
saa(lp357
S'leonardo'
p358
a(dp359
S'build'
p360
(dp361
S'core'
p362
S'arduino'
p363
sS'f_cpu'
p364
S'16000000L'
p365
sS'vid'
p366
S'0x2341'
p367
sS'pid'
p368
S'0x8036'
p369
sS'variant'
p370
S'leonardo'
p371
sS'mcu'
p372
S'atmega32u4'
p373
ssS'bootloader'
p374
(dp375
S'extended_fuses'
p376
S'0xcb'
p377
sS'high_fuses'
p378
S'0xd8'
p379
sS'low_fuses'
p380
S'0xff'
p381
sS'lock_bits'
p382
S'0x2F'
p383
sS'file'
p384
S'Caterina-Leonardo.hex'
p385
sS'path'
p386
S'caterina'
p387
sS'unlock_bits'
p388
S'0x3F'
p389
ssS'upload'
p390
(dp391
S'speed'
p392
S'57600'
p393
sS'maximum_size'
p394
S'28672'
p395
sS'protocol'
p396
S'avr109'
p397
sS'disable_flushing'
p398
S'true'
p399
ssS'name'
p400
S'Arduino Leonardo'
p401
sg115
S'/Applications/Arduino.app/Contents/Resources/Java/hardware/arduino'
p402
saa(lp403
S'esplora'
p404
a(dp405
S'build'
p406
(dp407
S'core'
p408
S'arduino'
p409
sS'f_cpu'
p410
S'16000000L'
p411
sS'vid'
p412
S'0x2341'
p413
sS'pid'
p414
S'0x803C'
p415
sS'variant'
p416
S'leonardo'
p417
sS'mcu'
p418
S'atmega32u4'
p419
ssS'bootloader'
p420
(dp421
S'extended_fuses'
p422
S'0xcb'
p423
sS'high_fuses'
p424
S'0xd8'
p425
sS'low_fuses'
p426
S'0xff'
p427
sS'lock_bits'
p428
S'0x2F'
p429
sS'file'
p430
S'Caterina-Esplora.hex'
p431
sS'path'
p432
S'caterina'
p433
sS'unlock_bits'
p434
S'0x3F'
p435
ssS'upload'
p436
(dp437
S'speed'
p438
S'57600'
p439
sS'maximum_size'
p440
S'28672'
p441
sS'protocol'
p442
S'avr109'
p443
sS'disable_flushing'
p444
S'true'
p445
ssS'name'
p446
S'Arduino Esplora'
p447
sg115
S'/Applications/Arduino.app/Contents/Resources/Java/hardware/arduino'
p448
saa(lp449
S'micro'
p450
a(dp451
S'build'
p452
(dp453
S'core'
p454
S'arduino'
p455
sS'f_cpu'
p456
S'16000000L'
p457
sS'vid'
p458
S'0x2341'
p459
sS'pid'
p460
S'0x8037'
p461
sS'variant'
p462
S'micro'
p463
sS'mcu'
p464
S'atmega32u4'
p465
ssS'bootloader'
p466
(dp467
S'extended_fuses'
p468
S'0xcb'
p469
sS'high_fuses'
p470
S'0xd8'
p471
sS'low_fuses'
p472
S'0xff'
p473
sS'lock_bits'
p474
S'0x2F'
p475
sS'file'
p476
S'Caterina-Micro.hex'
p477
sS'path'
p478
S'caterina'
p479
sS'unlock_bits'
p480
S'0x3F'
p481
ssS'upload'
p482
(dp483
S'speed'
p484
S'57600'
p485
sS'maximum_size'
p486
S'28672'
p487
sS'protocol'
p488
S'avr109'
p489
sS'disable_flushing'
p490
S'true'
p491
ssS'name'
p492
S'Arduino Micro'
p493
sg115
S'/Applications/Arduino.app/Contents/Resources/Java/hardware/arduino'
p494
saa(lp495
S'mini328'
p496
a(dp497
S'build'
p498
(dp499
S'core'
p500
S'arduino'
p501
sS'mcu'
p502
S'atmega328p'
p503
sS'f_cpu'
p504
S'16000000L'
p505
sS'variant'
p506
S'eightanaloginputs'
p507
ssS'bootloader'
p508
(dp509
S'extended_fuses'
p510
S'0x05'
p511
sS'high_fuses'
p512
S'0xd8'
p513
sS'low_fuses'
p514
S'0xff'
p515
sS'lock_bits'
p516
S'0x0F'
p517
sS'file'
p518
S'optiboot_atmega328-Mini.hex'
p519
sS'path'
p520
S'optiboot'
p521
sS'unlock_bits'
p522
S'0x3F'
p523
ssS'upload'
p524
(dp525
S'speed'
p526
S'115200'
p527
sS'maximum_size'
p528
S'28672'
p529
sS'protocol'
p530
S'arduino'
p531
ssS'name'
p532
S'Arduino Mini w/ ATmega328'
p533
sg115
S'/Applications/Arduino.app/Contents/Resources/Java/hardware/arduino'
p534
saa(lp535
S'mini'
p536
a(dp537
S'build'
p538
(dp539
S'core'
p540
S'arduino'
p541
sS'mcu'
p542
S'atmega168'
p543
sS'f_cpu'
p544
S'16000000L'
p545
sS'variant'
p546
S'eightanaloginputs'
p547
ssS'bootloader'
p548
(dp549
S'extended_fuses'
p550
S'0x00'
p551
sS'high_fuses'
p552
S'0xdd'
p553
sS'low_fuses'
p554
S'0xff'
p555
sS'lock_bits'
p556
S'0x0F'
p557
sS'file'
p558
S'ATmegaBOOT_168_ng.hex'
p559
sS'path'
p560
S'atmega'
p561
sS'unlock_bits'
p562
S'0x3F'
p563
ssS'upload'
p564
(dp565
S'speed'
p566
S'19200'
p567
sS'maximum_size'
p568
S'14336'
p569
sS'protocol'
p570
S'arduino'
p571
ssS'name'
p572
S'Arduino Mini w/ ATmega168'
p573
sg115
S'/Applications/Arduino.app/Contents/Resources/Java/hardware/arduino'
p574
saa(lp575
S'ethernet'
p576
a(dp577
S'build'
p578
(dp579
S'f_cpu'
p580
S'16000000L'
p581
sS'mcu'
p582
S'atmega328p'
p583
sS'variant'
p584
S'standard'
p585
sS'core'
p586
S'arduino'
p587
ssS'bootloader'
p588
(dp589
S'extended_fuses'
p590
S'0x05'
p591
sS'high_fuses'
p592
S'0xde'
p593
sS'low_fuses'
p594
S'0xff'
p595
sS'lock_bits'
p596
S'0x0F'
p597
sS'file'
p598
S'optiboot_atmega328.hex'
p599
sS'path'
p600
S'optiboot'
p601
sS'unlock_bits'
p602
S'0x3F'
p603
ssS'upload'
p604
(dp605
S'speed'
p606
S'115200'
p607
sS'maximum_size'
p608
S'32256'
p609
sS'protocol'
p610
S'arduino'
p611
ssS'name'
p612
S'Arduino Ethernet'
p613
sg115
S'/Applications/Arduino.app/Contents/Resources/Java/hardware/arduino'
p614
saa(lp615
S'fio'
p616
a(dp617
S'build'
p618
(dp619
S'core'
p620
S'arduino'
p621
sS'mcu'
p622
S'atmega328p'
p623
sS'f_cpu'
p624
S'8000000L'
p625
sS'variant'
p626
S'eightanaloginputs'
p627
ssS'bootloader'
p628
(dp629
S'extended_fuses'
p630
S'0x05'
p631
sS'high_fuses'
p632
S'0xDA'
p633
sS'low_fuses'
p634
S'0xFF'
p635
sS'lock_bits'
p636
S'0x0F'
p637
sS'file'
p638
S'ATmegaBOOT_168_atmega328_pro_8MHz.hex'
p639
sS'path'
p640
S'arduino:atmega'
p641
sS'unlock_bits'
p642
S'0x3F'
p643
ssS'upload'
p644
(dp645
S'speed'
p646
S'57600'
p647
sS'maximum_size'
p648
S'30720'
p649
sS'protocol'
p650
S'arduino'
p651
ssS'name'
p652
S'Arduino Fio'
p653
sg115
S'/Applications/Arduino.app/Contents/Resources/Java/hardware/arduino'
p654
saa(lp655
S'bt328'
p656
a(dp657
S'build'
p658
(dp659
S'core'
p660
S'arduino'
p661
sS'mcu'
p662
S'atmega328p'
p663
sS'f_cpu'
p664
S'16000000L'
p665
sS'variant'
p666
S'eightanaloginputs'
p667
ssS'bootloader'
p668
(dp669
S'extended_fuses'
p670
S'0x05'
p671
sS'high_fuses'
p672
S'0xd8'
p673
sS'low_fuses'
p674
S'0xff'
p675
sS'lock_bits'
p676
S'0x0F'
p677
sS'file'
p678
S'ATmegaBOOT_168_atmega328_bt.hex'
p679
sS'path'
p680
S'bt'
p681
sS'unlock_bits'
p682
S'0x3F'
p683
ssS'upload'
p684
(dp685
S'speed'
p686
S'19200'
p687
sS'maximum_size'
p688
S'28672'
p689
sS'protocol'
p690
S'arduino'
p691
sS'disable_flushing'
p692
S'true'
p693
ssS'name'
p694
S'Arduino BT w/ ATmega328'
p695
sg115
S'/Applications/Arduino.app/Contents/Resources/Java/hardware/arduino'
p696
saa(lp697
S'bt'
p698
a(dp699
S'build'
p700
(dp701
S'core'
p702
S'arduino'
p703
sS'mcu'
p704
S'atmega168'
p705
sS'f_cpu'
p706
S'16000000L'
p707
sS'variant'
p708
S'eightanaloginputs'
p709
ssS'bootloader'
p710
(dp711
S'extended_fuses'
p712
S'0x00'
p713
sS'high_fuses'
p714
S'0xdd'
p715
sS'low_fuses'
p716
S'0xff'
p717
sS'lock_bits'
p718
S'0x0F'
p719
sS'file'
p720
S'ATmegaBOOT_168.hex'
p721
sS'path'
p722
S'bt'
p723
sS'unlock_bits'
p724
S'0x3F'
p725
ssS'upload'
p726
(dp727
S'speed'
p728
S'19200'
p729
sS'maximum_size'
p730
S'14336'
p731
sS'protocol'
p732
S'arduino'
p733
sS'disable_flushing'
p734
S'true'
p735
ssS'name'
p736
S'Arduino BT w/ ATmega168'
p737
sg115
S'/Applications/Arduino.app/Contents/Resources/Java/hardware/arduino'
p738
saa(lp739
S'LilyPadUSB'
p740
a(dp741
S'build'
p742
(dp743
S'core'
p744
S'arduino'
p745
sS'f_cpu'
p746
S'8000000L'
p747
sS'vid'
p748
S'0x1B4F'
p749
sS'pid'
p750
S'0x9208'
p751
sS'variant'
p752
S'leonardo'
p753
sS'mcu'
p754
S'atmega32u4'
p755
ssS'bootloader'
p756
(dp757
S'extended_fuses'
p758
S'0xce'
p759
sS'high_fuses'
p760
S'0xd8'
p761
sS'low_fuses'
p762
S'0xff'
p763
sS'lock_bits'
p764
S'0x2F'
p765
sS'file'
p766
S'Caterina-LilyPadUSB.hex'
p767
sS'path'
p768
S'caterina-LilyPadUSB'
p769
sS'unlock_bits'
p770
S'0x3F'
p771
ssS'upload'
p772
(dp773
S'speed'
p774
S'57600'
p775
sS'maximum_size'
p776
S'28672'
p777
sS'protocol'
p778
S'avr109'
p779
sS'disable_flushing'
p780
S'true'
p781
ssS'name'
p782
S'LilyPad Arduino USB'
p783
sg115
S'/Applications/Arduino.app/Contents/Resources/Java/hardware/arduino'
p784
saa(lp785
S'lilypad328'
p786
a(dp787
S'build'
p788
(dp789
S'core'
p790
S'arduino'
p791
sS'mcu'
p792
S'atmega328p'
p793
sS'f_cpu'
p794
S'8000000L'
p795
sS'variant'
p796
S'standard'
p797
ssS'bootloader'
p798
(dp799
S'extended_fuses'
p800
S'0x05'
p801
sS'high_fuses'
p802
S'0xDA'
p803
sS'low_fuses'
p804
S'0xFF'
p805
sS'lock_bits'
p806
S'0x0F'
p807
sS'file'
p808
S'ATmegaBOOT_168_atmega328_pro_8MHz.hex'
p809
sS'path'
p810
S'atmega'
p811
sS'unlock_bits'
p812
S'0x3F'
p813
ssS'upload'
p814
(dp815
S'speed'
p816
S'57600'
p817
sS'maximum_size'
p818
S'30720'
p819
sS'protocol'
p820
S'arduino'
p821
ssS'name'
p822
S'LilyPad Arduino w/ ATmega328'
p823
sg115
S'/Applications/Arduino.app/Contents/Resources/Java/hardware/arduino'
p824
saa(lp825
S'lilypad'
p826
a(dp827
S'build'
p828
(dp829
S'core'
p830
S'arduino'
p831
sS'mcu'
p832
S'atmega168'
p833
sS'f_cpu'
p834
S'8000000L'
p835
sS'variant'
p836
S'standard'
p837
ssS'bootloader'
p838
(dp839
S'extended_fuses'
p840
S'0x00'
p841
sS'high_fuses'
p842
S'0xdd'
p843
sS'low_fuses'
p844
S'0xe2'
p845
sS'lock_bits'
p846
S'0x0F'
p847
sS'file'
p848
S'LilyPadBOOT_168.hex'
p849
sS'path'
p850
S'lilypad'
p851
sS'unlock_bits'
p852
S'0x3F'
p853
ssS'upload'
p854
(dp855
S'speed'
p856
S'19200'
p857
sS'maximum_size'
p858
S'14336'
p859
sS'protocol'
p860
S'arduino'
p861
ssS'name'
p862
S'LilyPad Arduino w/ ATmega168'
p863
sg115
S'/Applications/Arduino.app/Contents/Resources/Java/hardware/arduino'
p864
saa(lp865
S'pro5v328'
p866
a(dp867
S'build'
p868
(dp869
S'core'
p870
S'arduino'
p871
sS'mcu'
p872
S'atmega328p'
p873
sS'f_cpu'
p874
S'16000000L'
p875
sS'variant'
p876
S'standard'
p877
ssS'bootloader'
p878
(dp879
S'extended_fuses'
p880
S'0x05'
p881
sS'high_fuses'
p882
S'0xDA'
p883
sS'low_fuses'
p884
S'0xFF'
p885
sS'lock_bits'
p886
S'0x0F'
p887
sS'file'
p888
S'ATmegaBOOT_168_atmega328.hex'
p889
sS'path'
p890
S'atmega'
p891
sS'unlock_bits'
p892
S'0x3F'
p893
ssS'upload'
p894
(dp895
S'speed'
p896
S'57600'
p897
sS'maximum_size'
p898
S'30720'
p899
sS'protocol'
p900
S'arduino'
p901
ssS'name'
p902
S'Arduino Pro or Pro Mini (5V, 16 MHz) w/ ATmega328'
p903
sg115
S'/Applications/Arduino.app/Contents/Resources/Java/hardware/arduino'
p904
saa(lp905
S'pro5v'
p906
a(dp907
S'build'
p908
(dp909
S'core'
p910
S'arduino'
p911
sS'mcu'
p912
S'atmega168'
p913
sS'f_cpu'
p914
S'16000000L'
p915
sS'variant'
p916
S'standard'
p917
ssS'bootloader'
p918
(dp919
S'extended_fuses'
p920
S'0x00'
p921
sS'high_fuses'
p922
S'0xdd'
p923
sS'low_fuses'
p924
S'0xff'
p925
sS'lock_bits'
p926
S'0x0F'
p927
sS'file'
p928
S'ATmegaBOOT_168_diecimila.hex'
p929
sS'path'
p930
S'atmega'
p931
sS'unlock_bits'
p932
S'0x3F'
p933
ssS'upload'
p934
(dp935
S'speed'
p936
S'19200'
p937
sS'maximum_size'
p938
S'14336'
p939
sS'protocol'
p940
S'arduino'
p941
ssS'name'
p942
S'Arduino Pro or Pro Mini (5V, 16 MHz) w/ ATmega168'
p943
sg115
S'/Applications/Arduino.app/Contents/Resources/Java/hardware/arduino'
p944
saa(lp945
S'pro328'
p946
a(dp947
S'build'
p948
(dp949
S'core'
p950
S'arduino'
p951
sS'mcu'
p952
S'atmega328p'
p953
sS'f_cpu'
p954
S'8000000L'
p955
sS'variant'
p956
S'standard'
p957
ssS'bootloader'
p958
(dp959
S'extended_fuses'
p960
S'0x05'
p961
sS'high_fuses'
p962
S'0xDA'
p963
sS'low_fuses'
p964
S'0xFF'
p965
sS'lock_bits'
p966
S'0x0F'
p967
sS'file'
p968
S'ATmegaBOOT_168_atmega328_pro_8MHz.hex'
p969
sS'path'
p970
S'atmega'
p971
sS'unlock_bits'
p972
S'0x3F'
p973
ssS'upload'
p974
(dp975
S'speed'
p976
S'57600'
p977
sS'maximum_size'
p978
S'30720'
p979
sS'protocol'
p980
S'arduino'
p981
ssS'name'
p982
S'Arduino Pro or Pro Mini (3.3V, 8 MHz) w/ ATmega328'
p983
sg115
S'/Applications/Arduino.app/Contents/Resources/Java/hardware/arduino'
p984
saa(lp985
S'pro'
p986
a(dp987
S'build'
p988
(dp989
S'core'
p990
S'arduino'
p991
sS'mcu'
p992
S'atmega168'
p993
sS'f_cpu'
p994
S'8000000L'
p995
sS'variant'
p996
S'standard'
p997
ssS'bootloader'
p998
(dp999
S'extended_fuses'
p1000
S'0x00'
p1001
sS'high_fuses'
p1002
S'0xdd'
p1003
sS'low_fuses'
p1004
S'0xc6'
p1005
sS'lock_bits'
p1006
S'0x0F'
p1007
sS'file'
p1008
S'ATmegaBOOT_168_pro_8MHz.hex'
p1009
sS'path'
p1010
S'atmega'
p1011
sS'unlock_bits'
p1012
S'0x3F'
p1013
ssS'upload'
p1014
(dp1015
S'speed'
p1016
S'19200'
p1017
sS'maximum_size'
p1018
S'14336'
p1019
sS'protocol'
p1020
S'arduino'
p1021
ssS'name'
p1022
S'Arduino Pro or Pro Mini (3.3V, 8 MHz) w/ ATmega168'
p1023
sg115
S'/Applications/Arduino.app/Contents/Resources/Java/hardware/arduino'
p1024
saa(lp1025
S'atmega168'
p1026
a(dp1027
S'build'
p1028
(dp1029
S'core'
p1030
S'arduino'
p1031
sS'mcu'
p1032
S'atmega168'
p1033
sS'f_cpu'
p1034
S'16000000L'
p1035
sS'variant'
p1036
S'standard'
p1037
ssS'bootloader'
p1038
(dp1039
S'extended_fuses'
p1040
S'0x00'
p1041
sS'high_fuses'
p1042
S'0xdd'
p1043
sS'low_fuses'
p1044
S'0xff'
p1045
sS'lock_bits'
p1046
S'0x0F'
p1047
sS'file'
p1048
S'ATmegaBOOT_168_ng.hex'
p1049
sS'path'
p1050
S'atmega'
p1051
sS'unlock_bits'
p1052
S'0x3F'
p1053
ssS'upload'
p1054
(dp1055
S'speed'
p1056
S'19200'
p1057
sS'maximum_size'
p1058
S'14336'
p1059
sS'protocol'
p1060
S'arduino'
p1061
ssS'name'
p1062
S'Arduino NG or older w/ ATmega168'
p1063
sg115
S'/Applications/Arduino.app/Contents/Resources/Java/hardware/arduino'
p1064
saa(lp1065
S'atmega8'
p1066
a(dp1067
S'build'
p1068
(dp1069
S'core'
p1070
S'arduino'
p1071
sS'mcu'
p1072
S'atmega8'
p1073
sS'f_cpu'
p1074
S'16000000L'
p1075
sS'variant'
p1076
S'standard'
p1077
ssS'bootloader'
p1078
(dp1079
S'high_fuses'
p1080
S'0xca'
p1081
sS'low_fuses'
p1082
S'0xdf'
p1083
sS'lock_bits'
p1084
S'0x0F'
p1085
sS'file'
p1086
S'ATmegaBOOT-prod-firmware-2009-11-07.hex'
p1087
sS'path'
p1088
S'atmega8'
p1089
sS'unlock_bits'
p1090
S'0x3F'
p1091
ssS'upload'
p1092
(dp1093
S'speed'
p1094
S'19200'
p1095
sS'maximum_size'
p1096
S'7168'
p1097
sS'protocol'
p1098
S'arduino'
p1099
ssS'name'
p1100
S'Arduino NG or older w/ ATmega8'
p1101
sg115
S'/Applications/Arduino.app/Contents/Resources/Java/hardware/arduino'
p1102
saa(lp1103
S'robotControl'
p1104
a(dp1105
S'build'
p1106
(dp1107
S'core'
p1108
S'robot'
p1109
sS'f_cpu'
p1110
S'16000000L'
p1111
sS'vid'
p1112
S'0x2341'
p1113
sS'pid'
p1114
S'0x8038'
p1115
sS'variant'
p1116
S'robot_control'
p1117
sS'mcu'
p1118
S'atmega32u4'
p1119
ssS'bootloader'
p1120
(dp1121
S'extended_fuses'
p1122
S'0xcb'
p1123
sS'high_fuses'
p1124
S'0xd8'
p1125
sS'low_fuses'
p1126
S'0xff'
p1127
sS'lock_bits'
p1128
S'0x2F'
p1129
sS'file'
p1130
S'Caterina-Robot-Control.hex'
p1131
sS'path'
p1132
S'caterina-Arduino_Robot'
p1133
sS'unlock_bits'
p1134
S'0x3F'
p1135
ssS'upload'
p1136
(dp1137
S'speed'
p1138
S'57600'
p1139
sS'maximum_size'
p1140
S'28672'
p1141
sS'protocol'
p1142
S'avr109'
p1143
sS'disable_flushing'
p1144
S'true'
p1145
ssS'name'
p1146
S'Arduino Robot Control'
p1147
sg115
S'/Applications/Arduino.app/Contents/Resources/Java/hardware/arduino'
p1148
saa(lp1149
S'robotMotor'
p1150
a(dp1151
S'build'
p1152
(dp1153
S'core'
p1154
S'robot'
p1155
sS'f_cpu'
p1156
S'16000000L'
p1157
sS'vid'
p1158
S'0x2341'
p1159
sS'pid'
p1160
S'0x8039'
p1161
sS'variant'
p1162
S'robot_motor'
p1163
sS'mcu'
p1164
S'atmega32u4'
p1165
ssS'bootloader'
p1166
(dp1167
S'extended_fuses'
p1168
S'0xcb'
p1169
sS'high_fuses'
p1170
S'0xd8'
p1171
sS'low_fuses'
p1172
S'0xff'
p1173
sS'lock_bits'
p1174
S'0x2F'
p1175
sS'file'
p1176
S'Caterina-Robot-Motor.hex'
p1177
sS'path'
p1178
S'caterina-Arduino_Robot'
p1179
sS'unlock_bits'
p1180
S'0x3F'
p1181
ssS'upload'
p1182
(dp1183
S'speed'
p1184
S'57600'
p1185
sS'maximum_size'
p1186
S'28672'
p1187
sS'protocol'
p1188
S'avr109'
p1189
sS'disable_flushing'
p1190
S'true'
p1191
ssS'name'
p1192
S'Arduino Robot Motor'
p1193
sg115
S'/Applications/Arduino.app/Contents/Resources/Java/hardware/arduino'
p1194
saatp1195
Rp1196
(dp1197
S'default'
p1198
S'uno'
p1199
sbtp1200
a(S'used_libs'
p1201
(lp1202
S'lib/OneWire'
p1203
aS'lib/RTClib'
p1204
aS'lib/EEPROMEx'
p1205
aS'lib/SD'
p1206
aS'lib/DHT'
p1207
aS'lib/Wire'
p1208
aS'lib/SPI'
p1209
aS'/Applications/Arduino.app/Contents/Resources/Java/hardware/arduino/cores/arduino'
p1210
atp1211
a(S'make'
p1212
S'/Applications/Arduino.app/Contents/Resources/Java/hardware/tools/avr/bin/make'
p1213
tp1214
a(S'arduino_libraries_dir'
p1215
S'/Applications/Arduino.app/Contents/Resources/Java/libraries'
p1216
tp1217
a(S'cc'
p1218
S'/Applications/Arduino.app/Contents/Resources/Java/hardware/tools/avr/bin/avr-gcc'
p1219
tp1220
a(S'cflags'
p1221
g2
(g3
g4
(lp1222
tp1223
Rp1224
tp1225
a(S'cxxflags'
p1226
g2
(g3
g4
(lp1227
S'-fno-exceptions'
p1228
atp1229
Rp1230
tp1231
a(S'arduino_variants_dir'
p1232
S'/Applications/Arduino.app/Contents/Resources/Java/hardware/arduino/variants'
p1233
tp1234
a(S'serial'
p1235
S'/usr/local/bin/picocom'
p1236
tp1237
a(S'stty'
p1238
S'/bin/stty'
p1239
tp1240
a(S'version.txt'
p1241
S'/Applications/Arduino.app/Contents/Resources/Java/lib/version.txt'
p1242
tp1243
a(S'arduino_core_dir'
p1244
g1210
tp1245
a(S'boards.txt'
p1246
(lp1247
S'/Applications/Arduino.app/Contents/Resources/Java/hardware/arduino/boards.txt'
p1248
atp1249
a(S'avrdude.conf'
p1250
S'/Applications/Arduino.app/Contents/Resources/Java/hardware/tools/avr/etc/avrdude.conf'
p1251
tp1252
a(S'deps'
p1253
g2
(g3
g4
(lp1254
S'.build/mega2560/src/dependencies.d'
p1255
aS'.build/mega2560/arduino/dependencies.d'
p1256
aS'.build/mega2560/OneWire/dependencies.d'
p1257
aS'.build/mega2560/Wire/dependencies.d'
p1258
aS'.build/mega2560/RTClib/dependencies.d'
p1259
aS'.build/mega2560/EEPROMEx/dependencies.d'
p1260
aS'.build/mega2560/SPI/dependencies.d'
p1261
aS'.build/mega2560/SD/dependencies.d'
p1262
aS'.build/mega2560/DHT/dependencies.d'
p1263
atp1264
Rp1265
tp1266
a.