(lp0
(S'cppflags'
p1
ccopy_reg
_reconstructor
p2
(cino.utils
SpaceList
p3
c__builtin__
list
p4
(lp5
S'-mmcu=atmega2560'
p6
aS'-DF_CPU=16000000L'
p7
aS'-DARDUINO=105'
p8
aS'-I/Applications/Arduino.app/Contents/Resources/Java/hardware/arduino/cores/arduino'
p9
aS'-ffunction-sections'
p10
aS'-fdata-sections'
p11
aS'-g'
p12
aS'-Os'
p13
aS'-w'
p14
aS'-I/Applications/Arduino.app/Contents/Resources/Java/hardware/arduino/variants/mega'
p15
aS'-Ilib/OneWire'
p16
aS'-Ilib/RTClib'
p17
aS'-Ilib/EEPROMEx'
p18
aS'-Ilib/EEPROMEx/Examples'
p19
aS'-Ilib/EEPROMEx/Examples/EEPROMEx'
p20
aS'-Ilib/EEPROMEx/Examples/EEPROMVar'
p21
aS'-Ilib/SD'
p22
aS'-Ilib/SD/utility'
p23
aS'-Ilib/Wire'
p24
aS'-Ilib/Wire/utility'
p25
aS'-Ilib/SPI'
p26
aS'-I/Applications/Arduino.app/Contents/Resources/Java/hardware/arduino/cores/arduino'
p27
aS'-I/Applications/Arduino.app/Contents/Resources/Java/hardware/arduino/cores/arduino/avr-libc'
p28
atp29
Rp30
tp31
a(S'cxx'
p32
S'/Applications/Arduino.app/Contents/Resources/Java/hardware/tools/avr/bin/avr-g++'
p33
tp34
a(S'arduino_libraries_dir'
p35
S'/Applications/Arduino.app/Contents/Resources/Java/libraries'
p36
tp37
a(S'avrdude'
p38
S'/Applications/Arduino.app/Contents/Resources/Java/hardware/tools/avr/bin/avrdude'
p39
tp40
a(S'ar'
p41
S'/Applications/Arduino.app/Contents/Resources/Java/hardware/tools/avr/bin/avr-ar'
p42
tp43
a(S'names'
p44
(dp45
S'cpp'
p46
S'%s.cpp'
p47
sS'obj'
p48
S'%s.o'
p49
sS'lib'
p50
S'lib%s.a'
p51
sS'deps'
p52
S'%s.d'
p53
stp54
a(S'ldflags'
p55
g2
(g3
g4
(lp56
g6
aS'-Wl,-Os'
p57
aS'-Wl,--gc-sections'
p58
atp59
Rp60
tp61
a(S'arduino_lib_version'
p62
g2
(cino.environment
Version
p63
c__builtin__
tuple
p64
(I1
I0
I5
tp65
tp66
Rp67
tp68
a(S'objcopy'
p69
S'/Applications/Arduino.app/Contents/Resources/Java/hardware/tools/avr/bin/avr-objcopy'
p70
tp71
a(S'board_models'
p72
cino.environment
BoardModels
p73
((lp74
(lp75
S'uno'
p76
a(dp77
S'bootloader'
p78
(dp79
S'extended_fuses'
p80
S'0x05'
p81
sS'high_fuses'
p82
S'0xde'
p83
sS'low_fuses'
p84
S'0xff'
p85
sS'lock_bits'
p86
S'0x0F'
p87
sS'file'
p88
S'optiboot_atmega328.hex'
p89
sS'path'
p90
S'optiboot'
p91
sS'unlock_bits'
p92
S'0x3F'
p93
ssS'upload'
p94
(dp95
S'protocol'
p96
S'arduino'
p97
sS'maximum_size'
p98
S'32256'
p99
sS'speed'
p100
S'115200'
p101
ssS'build'
p102
(dp103
S'core'
p104
S'arduino'
p105
sS'mcu'
p106
S'atmega328p'
p107
sS'f_cpu'
p108
S'16000000L'
p109
sS'variant'
p110
S'standard'
p111
ssS'name'
p112
S'Arduino Uno'
p113
saa(lp114
S'atmega328'
p115
a(dp116
S'bootloader'
p117
(dp118
S'extended_fuses'
p119
S'0x05'
p120
sS'high_fuses'
p121
S'0xDA'
p122
sS'low_fuses'
p123
S'0xFF'
p124
sS'lock_bits'
p125
S'0x0F'
p126
sS'file'
p127
S'ATmegaBOOT_168_atmega328.hex'
p128
sS'path'
p129
S'atmega'
p130
sS'unlock_bits'
p131
S'0x3F'
p132
ssS'upload'
p133
(dp134
S'protocol'
p135
S'arduino'
p136
sS'maximum_size'
p137
S'30720'
p138
sS'speed'
p139
S'57600'
p140
ssS'build'
p141
(dp142
S'core'
p143
S'arduino'
p144
sS'mcu'
p145
S'atmega328p'
p146
sS'f_cpu'
p147
S'16000000L'
p148
sS'variant'
p149
S'standard'
p150
ssS'name'
p151
S'Arduino Duemilanove w/ ATmega328'
p152
saa(lp153
S'diecimila'
p154
a(dp155
S'bootloader'
p156
(dp157
S'extended_fuses'
p158
S'0x00'
p159
sS'high_fuses'
p160
S'0xdd'
p161
sS'low_fuses'
p162
S'0xff'
p163
sS'lock_bits'
p164
S'0x0F'
p165
sS'file'
p166
S'ATmegaBOOT_168_diecimila.hex'
p167
sS'path'
p168
S'atmega'
p169
sS'unlock_bits'
p170
S'0x3F'
p171
ssS'upload'
p172
(dp173
S'protocol'
p174
S'arduino'
p175
sS'maximum_size'
p176
S'14336'
p177
sS'speed'
p178
S'19200'
p179
ssS'build'
p180
(dp181
S'core'
p182
S'arduino'
p183
sS'mcu'
p184
S'atmega168'
p185
sS'f_cpu'
p186
S'16000000L'
p187
sS'variant'
p188
S'standard'
p189
ssS'name'
p190
S'Arduino Diecimila or Duemilanove w/ ATmega168'
p191
saa(lp192
S'nano328'
p193
a(dp194
S'bootloader'
p195
(dp196
S'extended_fuses'
p197
S'0x05'
p198
sS'high_fuses'
p199
S'0xDA'
p200
sS'low_fuses'
p201
S'0xFF'
p202
sS'lock_bits'
p203
S'0x0F'
p204
sS'file'
p205
S'ATmegaBOOT_168_atmega328.hex'
p206
sS'path'
p207
S'atmega'
p208
sS'unlock_bits'
p209
S'0x3F'
p210
ssS'upload'
p211
(dp212
S'protocol'
p213
S'arduino'
p214
sS'maximum_size'
p215
S'30720'
p216
sS'speed'
p217
S'57600'
p218
ssS'build'
p219
(dp220
S'core'
p221
S'arduino'
p222
sS'mcu'
p223
S'atmega328p'
p224
sS'f_cpu'
p225
S'16000000L'
p226
sS'variant'
p227
S'eightanaloginputs'
p228
ssS'name'
p229
S'Arduino Nano w/ ATmega328'
p230
saa(lp231
S'nano'
p232
a(dp233
S'bootloader'
p234
(dp235
S'extended_fuses'
p236
S'0x00'
p237
sS'high_fuses'
p238
S'0xdd'
p239
sS'low_fuses'
p240
S'0xff'
p241
sS'lock_bits'
p242
S'0x0F'
p243
sS'file'
p244
S'ATmegaBOOT_168_diecimila.hex'
p245
sS'path'
p246
S'atmega'
p247
sS'unlock_bits'
p248
S'0x3F'
p249
ssS'upload'
p250
(dp251
S'protocol'
p252
S'arduino'
p253
sS'maximum_size'
p254
S'14336'
p255
sS'speed'
p256
S'19200'
p257
ssS'build'
p258
(dp259
S'core'
p260
S'arduino'
p261
sS'mcu'
p262
S'atmega168'
p263
sS'f_cpu'
p264
S'16000000L'
p265
sS'variant'
p266
S'eightanaloginputs'
p267
ssS'name'
p268
S'Arduino Nano w/ ATmega168'
p269
saa(lp270
S'mega2560'
p271
a(dp272
S'bootloader'
p273
(dp274
S'extended_fuses'
p275
S'0xFD'
p276
sS'high_fuses'
p277
S'0xD8'
p278
sS'low_fuses'
p279
S'0xFF'
p280
sS'lock_bits'
p281
S'0x0F'
p282
sS'file'
p283
S'stk500boot_v2_mega2560.hex'
p284
sS'path'
p285
S'stk500v2'
p286
sS'unlock_bits'
p287
S'0x3F'
p288
ssS'upload'
p289
(dp290
S'protocol'
p291
S'wiring'
p292
sS'maximum_size'
p293
S'258048'
p294
sS'speed'
p295
S'115200'
p296
ssS'build'
p297
(dp298
S'core'
p299
S'arduino'
p300
sS'mcu'
p301
S'atmega2560'
p302
sS'f_cpu'
p303
S'16000000L'
p304
sS'variant'
p305
S'mega'
p306
ssS'name'
p307
S'Arduino Mega 2560 or Mega ADK'
p308
saa(lp309
S'mega'
p310
a(dp311
S'bootloader'
p312
(dp313
S'extended_fuses'
p314
S'0xF5'
p315
sS'high_fuses'
p316
S'0xDA'
p317
sS'low_fuses'
p318
S'0xFF'
p319
sS'lock_bits'
p320
S'0x0F'
p321
sS'file'
p322
S'ATmegaBOOT_168_atmega1280.hex'
p323
sS'path'
p324
S'atmega'
p325
sS'unlock_bits'
p326
S'0x3F'
p327
ssS'upload'
p328
(dp329
S'protocol'
p330
S'arduino'
p331
sS'maximum_size'
p332
S'126976'
p333
sS'speed'
p334
S'57600'
p335
ssS'build'
p336
(dp337
S'core'
p338
S'arduino'
p339
sS'mcu'
p340
S'atmega1280'
p341
sS'f_cpu'
p342
S'16000000L'
p343
sS'variant'
p344
S'mega'
p345
ssS'name'
p346
S'Arduino Mega (ATmega1280)'
p347
saa(lp348
S'leonardo'
p349
a(dp350
S'bootloader'
p351
(dp352
S'extended_fuses'
p353
S'0xcb'
p354
sS'high_fuses'
p355
S'0xd8'
p356
sS'low_fuses'
p357
S'0xff'
p358
sS'lock_bits'
p359
S'0x2F'
p360
sS'file'
p361
S'Caterina-Leonardo.hex'
p362
sS'path'
p363
S'caterina'
p364
sS'unlock_bits'
p365
S'0x3F'
p366
ssS'upload'
p367
(dp368
S'protocol'
p369
S'avr109'
p370
sS'maximum_size'
p371
S'28672'
p372
sS'speed'
p373
S'57600'
p374
sS'disable_flushing'
p375
S'true'
p376
ssS'build'
p377
(dp378
S'core'
p379
S'arduino'
p380
sS'f_cpu'
p381
S'16000000L'
p382
sS'vid'
p383
S'0x2341'
p384
sS'pid'
p385
S'0x8036'
p386
sS'variant'
p387
S'leonardo'
p388
sS'mcu'
p389
S'atmega32u4'
p390
ssS'name'
p391
S'Arduino Leonardo'
p392
saa(lp393
S'esplora'
p394
a(dp395
S'bootloader'
p396
(dp397
S'extended_fuses'
p398
S'0xcb'
p399
sS'high_fuses'
p400
S'0xd8'
p401
sS'low_fuses'
p402
S'0xff'
p403
sS'lock_bits'
p404
S'0x2F'
p405
sS'file'
p406
S'Caterina-Esplora.hex'
p407
sS'path'
p408
S'caterina'
p409
sS'unlock_bits'
p410
S'0x3F'
p411
ssS'upload'
p412
(dp413
S'protocol'
p414
S'avr109'
p415
sS'maximum_size'
p416
S'28672'
p417
sS'speed'
p418
S'57600'
p419
sS'disable_flushing'
p420
S'true'
p421
ssS'build'
p422
(dp423
S'core'
p424
S'arduino'
p425
sS'f_cpu'
p426
S'16000000L'
p427
sS'vid'
p428
S'0x2341'
p429
sS'pid'
p430
S'0x803C'
p431
sS'variant'
p432
S'leonardo'
p433
sS'mcu'
p434
S'atmega32u4'
p435
ssS'name'
p436
S'Arduino Esplora'
p437
saa(lp438
S'micro'
p439
a(dp440
S'bootloader'
p441
(dp442
S'extended_fuses'
p443
S'0xcb'
p444
sS'high_fuses'
p445
S'0xd8'
p446
sS'low_fuses'
p447
S'0xff'
p448
sS'lock_bits'
p449
S'0x2F'
p450
sS'file'
p451
S'Caterina-Micro.hex'
p452
sS'path'
p453
S'caterina'
p454
sS'unlock_bits'
p455
S'0x3F'
p456
ssS'upload'
p457
(dp458
S'protocol'
p459
S'avr109'
p460
sS'maximum_size'
p461
S'28672'
p462
sS'speed'
p463
S'57600'
p464
sS'disable_flushing'
p465
S'true'
p466
ssS'build'
p467
(dp468
S'core'
p469
S'arduino'
p470
sS'f_cpu'
p471
S'16000000L'
p472
sS'vid'
p473
S'0x2341'
p474
sS'pid'
p475
S'0x8037'
p476
sS'variant'
p477
S'micro'
p478
sS'mcu'
p479
S'atmega32u4'
p480
ssS'name'
p481
S'Arduino Micro'
p482
saa(lp483
S'mini328'
p484
a(dp485
S'bootloader'
p486
(dp487
S'extended_fuses'
p488
S'0x05'
p489
sS'high_fuses'
p490
S'0xd8'
p491
sS'low_fuses'
p492
S'0xff'
p493
sS'lock_bits'
p494
S'0x0F'
p495
sS'file'
p496
S'optiboot_atmega328-Mini.hex'
p497
sS'path'
p498
S'optiboot'
p499
sS'unlock_bits'
p500
S'0x3F'
p501
ssS'upload'
p502
(dp503
S'protocol'
p504
S'arduino'
p505
sS'maximum_size'
p506
S'28672'
p507
sS'speed'
p508
S'115200'
p509
ssS'build'
p510
(dp511
S'core'
p512
S'arduino'
p513
sS'mcu'
p514
S'atmega328p'
p515
sS'f_cpu'
p516
S'16000000L'
p517
sS'variant'
p518
S'eightanaloginputs'
p519
ssS'name'
p520
S'Arduino Mini w/ ATmega328'
p521
saa(lp522
S'mini'
p523
a(dp524
S'bootloader'
p525
(dp526
S'extended_fuses'
p527
S'0x00'
p528
sS'high_fuses'
p529
S'0xdd'
p530
sS'low_fuses'
p531
S'0xff'
p532
sS'lock_bits'
p533
S'0x0F'
p534
sS'file'
p535
S'ATmegaBOOT_168_ng.hex'
p536
sS'path'
p537
S'atmega'
p538
sS'unlock_bits'
p539
S'0x3F'
p540
ssS'upload'
p541
(dp542
S'protocol'
p543
S'arduino'
p544
sS'maximum_size'
p545
S'14336'
p546
sS'speed'
p547
S'19200'
p548
ssS'build'
p549
(dp550
S'core'
p551
S'arduino'
p552
sS'mcu'
p553
S'atmega168'
p554
sS'f_cpu'
p555
S'16000000L'
p556
sS'variant'
p557
S'eightanaloginputs'
p558
ssS'name'
p559
S'Arduino Mini w/ ATmega168'
p560
saa(lp561
S'ethernet'
p562
a(dp563
S'bootloader'
p564
(dp565
S'extended_fuses'
p566
S'0x05'
p567
sS'high_fuses'
p568
S'0xde'
p569
sS'low_fuses'
p570
S'0xff'
p571
sS'lock_bits'
p572
S'0x0F'
p573
sS'file'
p574
S'optiboot_atmega328.hex'
p575
sS'path'
p576
S'optiboot'
p577
sS'unlock_bits'
p578
S'0x3F'
p579
ssS'upload'
p580
(dp581
S'protocol'
p582
S'arduino'
p583
sS'maximum_size'
p584
S'32256'
p585
sS'speed'
p586
S'115200'
p587
ssS'build'
p588
(dp589
S'variant'
p590
S'standard'
p591
sS'mcu'
p592
S'atmega328p'
p593
sS'f_cpu'
p594
S'16000000L'
p595
sS'core'
p596
S'arduino'
p597
ssS'name'
p598
S'Arduino Ethernet'
p599
saa(lp600
S'fio'
p601
a(dp602
S'bootloader'
p603
(dp604
S'extended_fuses'
p605
S'0x05'
p606
sS'high_fuses'
p607
S'0xDA'
p608
sS'low_fuses'
p609
S'0xFF'
p610
sS'lock_bits'
p611
S'0x0F'
p612
sS'file'
p613
S'ATmegaBOOT_168_atmega328_pro_8MHz.hex'
p614
sS'path'
p615
S'arduino:atmega'
p616
sS'unlock_bits'
p617
S'0x3F'
p618
ssS'upload'
p619
(dp620
S'protocol'
p621
S'arduino'
p622
sS'maximum_size'
p623
S'30720'
p624
sS'speed'
p625
S'57600'
p626
ssS'build'
p627
(dp628
S'core'
p629
S'arduino'
p630
sS'mcu'
p631
S'atmega328p'
p632
sS'f_cpu'
p633
S'8000000L'
p634
sS'variant'
p635
S'eightanaloginputs'
p636
ssS'name'
p637
S'Arduino Fio'
p638
saa(lp639
S'bt328'
p640
a(dp641
S'bootloader'
p642
(dp643
S'extended_fuses'
p644
S'0x05'
p645
sS'high_fuses'
p646
S'0xd8'
p647
sS'low_fuses'
p648
S'0xff'
p649
sS'lock_bits'
p650
S'0x0F'
p651
sS'file'
p652
S'ATmegaBOOT_168_atmega328_bt.hex'
p653
sS'path'
p654
S'bt'
p655
sS'unlock_bits'
p656
S'0x3F'
p657
ssS'upload'
p658
(dp659
S'protocol'
p660
S'arduino'
p661
sS'maximum_size'
p662
S'28672'
p663
sS'speed'
p664
S'19200'
p665
sS'disable_flushing'
p666
S'true'
p667
ssS'build'
p668
(dp669
S'core'
p670
S'arduino'
p671
sS'mcu'
p672
S'atmega328p'
p673
sS'f_cpu'
p674
S'16000000L'
p675
sS'variant'
p676
S'eightanaloginputs'
p677
ssS'name'
p678
S'Arduino BT w/ ATmega328'
p679
saa(lp680
S'bt'
p681
a(dp682
S'bootloader'
p683
(dp684
S'extended_fuses'
p685
S'0x00'
p686
sS'high_fuses'
p687
S'0xdd'
p688
sS'low_fuses'
p689
S'0xff'
p690
sS'lock_bits'
p691
S'0x0F'
p692
sS'file'
p693
S'ATmegaBOOT_168.hex'
p694
sS'path'
p695
S'bt'
p696
sS'unlock_bits'
p697
S'0x3F'
p698
ssS'upload'
p699
(dp700
S'protocol'
p701
S'arduino'
p702
sS'maximum_size'
p703
S'14336'
p704
sS'speed'
p705
S'19200'
p706
sS'disable_flushing'
p707
S'true'
p708
ssS'build'
p709
(dp710
S'core'
p711
S'arduino'
p712
sS'mcu'
p713
S'atmega168'
p714
sS'f_cpu'
p715
S'16000000L'
p716
sS'variant'
p717
S'eightanaloginputs'
p718
ssS'name'
p719
S'Arduino BT w/ ATmega168'
p720
saa(lp721
S'LilyPadUSB'
p722
a(dp723
S'bootloader'
p724
(dp725
S'extended_fuses'
p726
S'0xce'
p727
sS'high_fuses'
p728
S'0xd8'
p729
sS'low_fuses'
p730
S'0xff'
p731
sS'lock_bits'
p732
S'0x2F'
p733
sS'file'
p734
S'Caterina-LilyPadUSB.hex'
p735
sS'path'
p736
S'caterina-LilyPadUSB'
p737
sS'unlock_bits'
p738
S'0x3F'
p739
ssS'upload'
p740
(dp741
S'protocol'
p742
S'avr109'
p743
sS'maximum_size'
p744
S'28672'
p745
sS'speed'
p746
S'57600'
p747
sS'disable_flushing'
p748
S'true'
p749
ssS'build'
p750
(dp751
S'core'
p752
S'arduino'
p753
sS'f_cpu'
p754
S'8000000L'
p755
sS'vid'
p756
S'0x1B4F'
p757
sS'pid'
p758
S'0x9208'
p759
sS'variant'
p760
S'leonardo'
p761
sS'mcu'
p762
S'atmega32u4'
p763
ssS'name'
p764
S'LilyPad Arduino USB'
p765
saa(lp766
S'lilypad328'
p767
a(dp768
S'bootloader'
p769
(dp770
S'extended_fuses'
p771
S'0x05'
p772
sS'high_fuses'
p773
S'0xDA'
p774
sS'low_fuses'
p775
S'0xFF'
p776
sS'lock_bits'
p777
S'0x0F'
p778
sS'file'
p779
S'ATmegaBOOT_168_atmega328_pro_8MHz.hex'
p780
sS'path'
p781
S'atmega'
p782
sS'unlock_bits'
p783
S'0x3F'
p784
ssS'upload'
p785
(dp786
S'protocol'
p787
S'arduino'
p788
sS'maximum_size'
p789
S'30720'
p790
sS'speed'
p791
S'57600'
p792
ssS'build'
p793
(dp794
S'core'
p795
S'arduino'
p796
sS'mcu'
p797
S'atmega328p'
p798
sS'f_cpu'
p799
S'8000000L'
p800
sS'variant'
p801
S'standard'
p802
ssS'name'
p803
S'LilyPad Arduino w/ ATmega328'
p804
saa(lp805
S'lilypad'
p806
a(dp807
S'bootloader'
p808
(dp809
S'extended_fuses'
p810
S'0x00'
p811
sS'high_fuses'
p812
S'0xdd'
p813
sS'low_fuses'
p814
S'0xe2'
p815
sS'lock_bits'
p816
S'0x0F'
p817
sS'file'
p818
S'LilyPadBOOT_168.hex'
p819
sS'path'
p820
S'lilypad'
p821
sS'unlock_bits'
p822
S'0x3F'
p823
ssS'upload'
p824
(dp825
S'protocol'
p826
S'arduino'
p827
sS'maximum_size'
p828
S'14336'
p829
sS'speed'
p830
S'19200'
p831
ssS'build'
p832
(dp833
S'core'
p834
S'arduino'
p835
sS'mcu'
p836
S'atmega168'
p837
sS'f_cpu'
p838
S'8000000L'
p839
sS'variant'
p840
S'standard'
p841
ssS'name'
p842
S'LilyPad Arduino w/ ATmega168'
p843
saa(lp844
S'pro5v328'
p845
a(dp846
S'bootloader'
p847
(dp848
S'extended_fuses'
p849
S'0x05'
p850
sS'high_fuses'
p851
S'0xDA'
p852
sS'low_fuses'
p853
S'0xFF'
p854
sS'lock_bits'
p855
S'0x0F'
p856
sS'file'
p857
S'ATmegaBOOT_168_atmega328.hex'
p858
sS'path'
p859
S'atmega'
p860
sS'unlock_bits'
p861
S'0x3F'
p862
ssS'upload'
p863
(dp864
S'protocol'
p865
S'arduino'
p866
sS'maximum_size'
p867
S'30720'
p868
sS'speed'
p869
S'57600'
p870
ssS'build'
p871
(dp872
S'core'
p873
S'arduino'
p874
sS'mcu'
p875
S'atmega328p'
p876
sS'f_cpu'
p877
S'16000000L'
p878
sS'variant'
p879
S'standard'
p880
ssS'name'
p881
S'Arduino Pro or Pro Mini (5V, 16 MHz) w/ ATmega328'
p882
saa(lp883
S'pro5v'
p884
a(dp885
S'bootloader'
p886
(dp887
S'extended_fuses'
p888
S'0x00'
p889
sS'high_fuses'
p890
S'0xdd'
p891
sS'low_fuses'
p892
S'0xff'
p893
sS'lock_bits'
p894
S'0x0F'
p895
sS'file'
p896
S'ATmegaBOOT_168_diecimila.hex'
p897
sS'path'
p898
S'atmega'
p899
sS'unlock_bits'
p900
S'0x3F'
p901
ssS'upload'
p902
(dp903
S'protocol'
p904
S'arduino'
p905
sS'maximum_size'
p906
S'14336'
p907
sS'speed'
p908
S'19200'
p909
ssS'build'
p910
(dp911
S'core'
p912
S'arduino'
p913
sS'mcu'
p914
S'atmega168'
p915
sS'f_cpu'
p916
S'16000000L'
p917
sS'variant'
p918
S'standard'
p919
ssS'name'
p920
S'Arduino Pro or Pro Mini (5V, 16 MHz) w/ ATmega168'
p921
saa(lp922
S'pro328'
p923
a(dp924
S'bootloader'
p925
(dp926
S'extended_fuses'
p927
S'0x05'
p928
sS'high_fuses'
p929
S'0xDA'
p930
sS'low_fuses'
p931
S'0xFF'
p932
sS'lock_bits'
p933
S'0x0F'
p934
sS'file'
p935
S'ATmegaBOOT_168_atmega328_pro_8MHz.hex'
p936
sS'path'
p937
S'atmega'
p938
sS'unlock_bits'
p939
S'0x3F'
p940
ssS'upload'
p941
(dp942
S'protocol'
p943
S'arduino'
p944
sS'maximum_size'
p945
S'30720'
p946
sS'speed'
p947
S'57600'
p948
ssS'build'
p949
(dp950
S'core'
p951
S'arduino'
p952
sS'mcu'
p953
S'atmega328p'
p954
sS'f_cpu'
p955
S'8000000L'
p956
sS'variant'
p957
S'standard'
p958
ssS'name'
p959
S'Arduino Pro or Pro Mini (3.3V, 8 MHz) w/ ATmega328'
p960
saa(lp961
S'pro'
p962
a(dp963
S'bootloader'
p964
(dp965
S'extended_fuses'
p966
S'0x00'
p967
sS'high_fuses'
p968
S'0xdd'
p969
sS'low_fuses'
p970
S'0xc6'
p971
sS'lock_bits'
p972
S'0x0F'
p973
sS'file'
p974
S'ATmegaBOOT_168_pro_8MHz.hex'
p975
sS'path'
p976
S'atmega'
p977
sS'unlock_bits'
p978
S'0x3F'
p979
ssS'upload'
p980
(dp981
S'protocol'
p982
S'arduino'
p983
sS'maximum_size'
p984
S'14336'
p985
sS'speed'
p986
S'19200'
p987
ssS'build'
p988
(dp989
S'core'
p990
S'arduino'
p991
sS'mcu'
p992
S'atmega168'
p993
sS'f_cpu'
p994
S'8000000L'
p995
sS'variant'
p996
S'standard'
p997
ssS'name'
p998
S'Arduino Pro or Pro Mini (3.3V, 8 MHz) w/ ATmega168'
p999
saa(lp1000
S'atmega168'
p1001
a(dp1002
S'bootloader'
p1003
(dp1004
S'extended_fuses'
p1005
S'0x00'
p1006
sS'high_fuses'
p1007
S'0xdd'
p1008
sS'low_fuses'
p1009
S'0xff'
p1010
sS'lock_bits'
p1011
S'0x0F'
p1012
sS'file'
p1013
S'ATmegaBOOT_168_ng.hex'
p1014
sS'path'
p1015
S'atmega'
p1016
sS'unlock_bits'
p1017
S'0x3F'
p1018
ssS'upload'
p1019
(dp1020
S'protocol'
p1021
S'arduino'
p1022
sS'maximum_size'
p1023
S'14336'
p1024
sS'speed'
p1025
S'19200'
p1026
ssS'build'
p1027
(dp1028
S'core'
p1029
S'arduino'
p1030
sS'mcu'
p1031
S'atmega168'
p1032
sS'f_cpu'
p1033
S'16000000L'
p1034
sS'variant'
p1035
S'standard'
p1036
ssS'name'
p1037
S'Arduino NG or older w/ ATmega168'
p1038
saa(lp1039
S'atmega8'
p1040
a(dp1041
S'bootloader'
p1042
(dp1043
S'high_fuses'
p1044
S'0xca'
p1045
sS'low_fuses'
p1046
S'0xdf'
p1047
sS'lock_bits'
p1048
S'0x0F'
p1049
sS'file'
p1050
S'ATmegaBOOT-prod-firmware-2009-11-07.hex'
p1051
sS'path'
p1052
S'atmega8'
p1053
sS'unlock_bits'
p1054
S'0x3F'
p1055
ssS'upload'
p1056
(dp1057
S'protocol'
p1058
S'arduino'
p1059
sS'maximum_size'
p1060
S'7168'
p1061
sS'speed'
p1062
S'19200'
p1063
ssS'build'
p1064
(dp1065
S'core'
p1066
S'arduino'
p1067
sS'mcu'
p1068
S'atmega8'
p1069
sS'f_cpu'
p1070
S'16000000L'
p1071
sS'variant'
p1072
S'standard'
p1073
ssS'name'
p1074
S'Arduino NG or older w/ ATmega8'
p1075
saa(lp1076
S'robotControl'
p1077
a(dp1078
S'bootloader'
p1079
(dp1080
S'extended_fuses'
p1081
S'0xcb'
p1082
sS'high_fuses'
p1083
S'0xd8'
p1084
sS'low_fuses'
p1085
S'0xff'
p1086
sS'lock_bits'
p1087
S'0x2F'
p1088
sS'file'
p1089
S'Caterina-Robot-Control.hex'
p1090
sS'path'
p1091
S'caterina-Arduino_Robot'
p1092
sS'unlock_bits'
p1093
S'0x3F'
p1094
ssS'upload'
p1095
(dp1096
S'protocol'
p1097
S'avr109'
p1098
sS'maximum_size'
p1099
S'28672'
p1100
sS'speed'
p1101
S'57600'
p1102
sS'disable_flushing'
p1103
S'true'
p1104
ssS'build'
p1105
(dp1106
S'core'
p1107
S'robot'
p1108
sS'f_cpu'
p1109
S'16000000L'
p1110
sS'vid'
p1111
S'0x2341'
p1112
sS'pid'
p1113
S'0x8038'
p1114
sS'variant'
p1115
S'robot_control'
p1116
sS'mcu'
p1117
S'atmega32u4'
p1118
ssS'name'
p1119
S'Arduino Robot Control'
p1120
saa(lp1121
S'robotMotor'
p1122
a(dp1123
S'bootloader'
p1124
(dp1125
S'extended_fuses'
p1126
S'0xcb'
p1127
sS'high_fuses'
p1128
S'0xd8'
p1129
sS'low_fuses'
p1130
S'0xff'
p1131
sS'lock_bits'
p1132
S'0x2F'
p1133
sS'file'
p1134
S'Caterina-Robot-Motor.hex'
p1135
sS'path'
p1136
S'caterina-Arduino_Robot'
p1137
sS'unlock_bits'
p1138
S'0x3F'
p1139
ssS'upload'
p1140
(dp1141
S'protocol'
p1142
S'avr109'
p1143
sS'maximum_size'
p1144
S'28672'
p1145
sS'speed'
p1146
S'57600'
p1147
sS'disable_flushing'
p1148
S'true'
p1149
ssS'build'
p1150
(dp1151
S'core'
p1152
S'robot'
p1153
sS'f_cpu'
p1154
S'16000000L'
p1155
sS'vid'
p1156
S'0x2341'
p1157
sS'pid'
p1158
S'0x8039'
p1159
sS'variant'
p1160
S'robot_motor'
p1161
sS'mcu'
p1162
S'atmega32u4'
p1163
ssS'name'
p1164
S'Arduino Robot Motor'
p1165
saatp1166
Rp1167
(dp1168
S'default'
p1169
S'uno'
p1170
sbtp1171
a(S'used_libs'
p1172
(lp1173
S'lib/OneWire'
p1174
aS'lib/RTClib'
p1175
aS'lib/EEPROMEx'
p1176
aS'lib/SD'
p1177
aS'lib/Wire'
p1178
aS'lib/SPI'
p1179
aS'/Applications/Arduino.app/Contents/Resources/Java/hardware/arduino/cores/arduino'
p1180
atp1181
a(S'make'
p1182
S'/Applications/Arduino.app/Contents/Resources/Java/hardware/tools/avr/bin/make'
p1183
tp1184
a(S'build_dir'
p1185
S'.build/mega2560'
p1186
tp1187
a(S'cc'
p1188
S'/Applications/Arduino.app/Contents/Resources/Java/hardware/tools/avr/bin/avr-gcc'
p1189
tp1190
a(S'cflags'
p1191
g2
(g3
g4
(lp1192
tp1193
Rp1194
tp1195
a(S'cxxflags'
p1196
g2
(g3
g4
(lp1197
S'-fno-exceptions'
p1198
atp1199
Rp1200
tp1201
a(S'arduino_variants_dir'
p1202
S'/Applications/Arduino.app/Contents/Resources/Java/hardware/arduino/variants'
p1203
tp1204
a(S'stty'
p1205
S'/bin/stty'
p1206
tp1207
a(S'version.txt'
p1208
S'/Applications/Arduino.app/Contents/Resources/Java/lib/version.txt'
p1209
tp1210
a(S'arduino_core_dir'
p1211
g1180
tp1212
a(S'boards.txt'
p1213
S'/Applications/Arduino.app/Contents/Resources/Java/hardware/arduino/boards.txt'
p1214
tp1215
a(S'avrdude.conf'
p1216
S'/Applications/Arduino.app/Contents/Resources/Java/hardware/tools/avr/etc/avrdude.conf'
p1217
tp1218
a(g52
g2
(g3
g4
(lp1219
S'.build/mega2560/src/dependencies.d'
p1220
aS'.build/mega2560/arduino/dependencies.d'
p1221
aS'.build/mega2560/OneWire/dependencies.d'
p1222
aS'.build/mega2560/Wire/dependencies.d'
p1223
aS'.build/mega2560/RTClib/dependencies.d'
p1224
aS'.build/mega2560/EEPROMEx/dependencies.d'
p1225
aS'.build/mega2560/SPI/dependencies.d'
p1226
aS'.build/mega2560/SD/dependencies.d'
p1227
atp1228
Rp1229
tp1230
a.