(lp0
(S'cppflags'
p1
ccopy_reg
_reconstructor
p2
(cino.utils
SpaceList
p3
c__builtin__
list
p4
(lp5
S'-mmcu=atmega2560'
p6
aS'-DF_CPU=16000000L'
p7
aS'-DARDUINO=105'
p8
aS'-I/Applications/Arduino.app/Contents/Resources/Java/hardware/arduino/cores/arduino'
p9
aS'-ffunction-sections'
p10
aS'-fdata-sections'
p11
aS'-g'
p12
aS'-Os'
p13
aS'-w'
p14
aS'-I/Applications/Arduino.app/Contents/Resources/Java/hardware/arduino/variants/mega'
p15
aS'-Ilib/OneWire'
p16
aS'-Ilib/RTClib'
p17
aS'-Ilib/EEPROMEx'
p18
aS'-Ilib/EEPROMEx/Examples'
p19
aS'-Ilib/EEPROMEx/Examples/EEPROMEx'
p20
aS'-Ilib/EEPROMEx/Examples/EEPROMVar'
p21
aS'-Ilib/SD'
p22
aS'-Ilib/SD/utility'
p23
aS'-Ilib/DHT'
p24
aS'-Ilib/Wire'
p25
aS'-Ilib/Wire/utility'
p26
aS'-Ilib/SPI'
p27
aS'-I/Applications/Arduino.app/Contents/Resources/Java/hardware/arduino/cores/arduino'
p28
aS'-I/Applications/Arduino.app/Contents/Resources/Java/hardware/arduino/cores/arduino/avr-libc'
p29
atp30
Rp31
tp32
a(S'version.txt'
p33
S'/Applications/Arduino.app/Contents/Resources/Java/lib/version.txt'
p34
tp35
a(S'used_libs'
p36
(lp37
S'lib/OneWire'
p38
aS'lib/RTClib'
p39
aS'lib/EEPROMEx'
p40
aS'lib/SD'
p41
aS'lib/DHT'
p42
aS'lib/Wire'
p43
aS'lib/SPI'
p44
aS'/Applications/Arduino.app/Contents/Resources/Java/hardware/arduino/cores/arduino'
p45
atp46
a(S'cc'
p47
S'/Applications/Arduino.app/Contents/Resources/Java/hardware/tools/avr/bin/avr-gcc'
p48
tp49
a(S'make'
p50
S'/Applications/Arduino.app/Contents/Resources/Java/hardware/tools/avr/bin/make'
p51
tp52
a(S'build_dir'
p53
S'.build/mega2560'
p54
tp55
a(S'arduino_core_dir'
p56
g45
tp57
a(S'boards.txt'
p58
(lp59
S'/Applications/Arduino.app/Contents/Resources/Java/hardware/arduino/boards.txt'
p60
atp61
a(S'cxxflags'
p62
g2
(g3
g4
(lp63
S'-fno-exceptions'
p64
atp65
Rp66
tp67
a(S'arduino_variants_dir'
p68
S'/Applications/Arduino.app/Contents/Resources/Java/hardware/arduino/variants'
p69
tp70
a(S'deps'
p71
g2
(g3
g4
(lp72
S'.build/mega2560/src/dependencies.d'
p73
aS'.build/mega2560/arduino/dependencies.d'
p74
aS'.build/mega2560/OneWire/dependencies.d'
p75
aS'.build/mega2560/Wire/dependencies.d'
p76
aS'.build/mega2560/RTClib/dependencies.d'
p77
aS'.build/mega2560/EEPROMEx/dependencies.d'
p78
aS'.build/mega2560/SPI/dependencies.d'
p79
aS'.build/mega2560/SD/dependencies.d'
p80
aS'.build/mega2560/DHT/dependencies.d'
p81
atp82
Rp83
tp84
a(S'ar'
p85
S'/Applications/Arduino.app/Contents/Resources/Java/hardware/tools/avr/bin/avr-ar'
p86
tp87
a(S'names'
p88
(dp89
S'cpp'
p90
S'%s.cpp'
p91
sS'obj'
p92
S'%s.o'
p93
sg71
S'%s.d'
p94
sS'lib'
p95
S'lib%s.a'
p96
stp97
a(S'cflags'
p98
g2
(g3
g4
(lp99
tp100
Rp101
tp102
a(S'ldflags'
p103
g2
(g3
g4
(lp104
g6
aS'-Wl,-Os'
p105
aS'-Wl,--gc-sections'
p106
atp107
Rp108
tp109
a(S'arduino_libraries_dir'
p110
S'/Applications/Arduino.app/Contents/Resources/Java/libraries'
p111
tp112
a(S'arduino_lib_version'
p113
g2
(cino.environment
Version
p114
c__builtin__
tuple
p115
(I1
I0
I5
tp116
tp117
Rp118
tp119
a(S'objcopy'
p120
S'/Applications/Arduino.app/Contents/Resources/Java/hardware/tools/avr/bin/avr-objcopy'
p121
tp122
a(S'board_models'
p123
cino.environment
BoardModels
p124
((lp125
(lp126
S'uno'
p127
a(dp128
S'build'
p129
(dp130
S'core'
p131
S'arduino'
p132
sS'mcu'
p133
S'atmega328p'
p134
sS'f_cpu'
p135
S'16000000L'
p136
sS'variant'
p137
S'standard'
p138
ssS'bootloader'
p139
(dp140
S'extended_fuses'
p141
S'0x05'
p142
sS'high_fuses'
p143
S'0xde'
p144
sS'low_fuses'
p145
S'0xff'
p146
sS'lock_bits'
p147
S'0x0F'
p148
sS'file'
p149
S'optiboot_atmega328.hex'
p150
sS'path'
p151
S'optiboot'
p152
sS'unlock_bits'
p153
S'0x3F'
p154
ssS'upload'
p155
(dp156
S'speed'
p157
S'115200'
p158
sS'maximum_size'
p159
S'32256'
p160
sS'protocol'
p161
S'arduino'
p162
ssS'name'
p163
S'Arduino Uno'
p164
sS'_coredir'
p165
S'/Applications/Arduino.app/Contents/Resources/Java/hardware/arduino'
p166
saa(lp167
S'atmega328'
p168
a(dp169
S'build'
p170
(dp171
S'core'
p172
S'arduino'
p173
sS'mcu'
p174
S'atmega328p'
p175
sS'f_cpu'
p176
S'16000000L'
p177
sS'variant'
p178
S'standard'
p179
ssS'bootloader'
p180
(dp181
S'extended_fuses'
p182
S'0x05'
p183
sS'high_fuses'
p184
S'0xDA'
p185
sS'low_fuses'
p186
S'0xFF'
p187
sS'lock_bits'
p188
S'0x0F'
p189
sS'file'
p190
S'ATmegaBOOT_168_atmega328.hex'
p191
sS'path'
p192
S'atmega'
p193
sS'unlock_bits'
p194
S'0x3F'
p195
ssS'upload'
p196
(dp197
S'speed'
p198
S'57600'
p199
sS'maximum_size'
p200
S'30720'
p201
sS'protocol'
p202
S'arduino'
p203
ssS'name'
p204
S'Arduino Duemilanove w/ ATmega328'
p205
sg165
S'/Applications/Arduino.app/Contents/Resources/Java/hardware/arduino'
p206
saa(lp207
S'diecimila'
p208
a(dp209
S'build'
p210
(dp211
S'core'
p212
S'arduino'
p213
sS'mcu'
p214
S'atmega168'
p215
sS'f_cpu'
p216
S'16000000L'
p217
sS'variant'
p218
S'standard'
p219
ssS'bootloader'
p220
(dp221
S'extended_fuses'
p222
S'0x00'
p223
sS'high_fuses'
p224
S'0xdd'
p225
sS'low_fuses'
p226
S'0xff'
p227
sS'lock_bits'
p228
S'0x0F'
p229
sS'file'
p230
S'ATmegaBOOT_168_diecimila.hex'
p231
sS'path'
p232
S'atmega'
p233
sS'unlock_bits'
p234
S'0x3F'
p235
ssS'upload'
p236
(dp237
S'speed'
p238
S'19200'
p239
sS'maximum_size'
p240
S'14336'
p241
sS'protocol'
p242
S'arduino'
p243
ssS'name'
p244
S'Arduino Diecimila or Duemilanove w/ ATmega168'
p245
sg165
S'/Applications/Arduino.app/Contents/Resources/Java/hardware/arduino'
p246
saa(lp247
S'nano328'
p248
a(dp249
S'build'
p250
(dp251
S'core'
p252
S'arduino'
p253
sS'mcu'
p254
S'atmega328p'
p255
sS'f_cpu'
p256
S'16000000L'
p257
sS'variant'
p258
S'eightanaloginputs'
p259
ssS'bootloader'
p260
(dp261
S'extended_fuses'
p262
S'0x05'
p263
sS'high_fuses'
p264
S'0xDA'
p265
sS'low_fuses'
p266
S'0xFF'
p267
sS'lock_bits'
p268
S'0x0F'
p269
sS'file'
p270
S'ATmegaBOOT_168_atmega328.hex'
p271
sS'path'
p272
S'atmega'
p273
sS'unlock_bits'
p274
S'0x3F'
p275
ssS'upload'
p276
(dp277
S'speed'
p278
S'57600'
p279
sS'maximum_size'
p280
S'30720'
p281
sS'protocol'
p282
S'arduino'
p283
ssS'name'
p284
S'Arduino Nano w/ ATmega328'
p285
sg165
S'/Applications/Arduino.app/Contents/Resources/Java/hardware/arduino'
p286
saa(lp287
S'nano'
p288
a(dp289
S'build'
p290
(dp291
S'core'
p292
S'arduino'
p293
sS'mcu'
p294
S'atmega168'
p295
sS'f_cpu'
p296
S'16000000L'
p297
sS'variant'
p298
S'eightanaloginputs'
p299
ssS'bootloader'
p300
(dp301
S'extended_fuses'
p302
S'0x00'
p303
sS'high_fuses'
p304
S'0xdd'
p305
sS'low_fuses'
p306
S'0xff'
p307
sS'lock_bits'
p308
S'0x0F'
p309
sS'file'
p310
S'ATmegaBOOT_168_diecimila.hex'
p311
sS'path'
p312
S'atmega'
p313
sS'unlock_bits'
p314
S'0x3F'
p315
ssS'upload'
p316
(dp317
S'speed'
p318
S'19200'
p319
sS'maximum_size'
p320
S'14336'
p321
sS'protocol'
p322
S'arduino'
p323
ssS'name'
p324
S'Arduino Nano w/ ATmega168'
p325
sg165
S'/Applications/Arduino.app/Contents/Resources/Java/hardware/arduino'
p326
saa(lp327
S'mega2560'
p328
a(dp329
S'build'
p330
(dp331
S'core'
p332
S'arduino'
p333
sS'mcu'
p334
S'atmega2560'
p335
sS'f_cpu'
p336
S'16000000L'
p337
sS'variant'
p338
S'mega'
p339
ssS'bootloader'
p340
(dp341
S'extended_fuses'
p342
S'0xFD'
p343
sS'high_fuses'
p344
S'0xD8'
p345
sS'low_fuses'
p346
S'0xFF'
p347
sS'lock_bits'
p348
S'0x0F'
p349
sS'file'
p350
S'stk500boot_v2_mega2560.hex'
p351
sS'path'
p352
S'stk500v2'
p353
sS'unlock_bits'
p354
S'0x3F'
p355
ssS'upload'
p356
(dp357
S'speed'
p358
S'115200'
p359
sS'maximum_size'
p360
S'258048'
p361
sS'protocol'
p362
S'wiring'
p363
ssS'name'
p364
S'Arduino Mega 2560 or Mega ADK'
p365
sg165
S'/Applications/Arduino.app/Contents/Resources/Java/hardware/arduino'
p366
saa(lp367
S'mega'
p368
a(dp369
S'build'
p370
(dp371
S'core'
p372
S'arduino'
p373
sS'mcu'
p374
S'atmega1280'
p375
sS'f_cpu'
p376
S'16000000L'
p377
sS'variant'
p378
S'mega'
p379
ssS'bootloader'
p380
(dp381
S'extended_fuses'
p382
S'0xF5'
p383
sS'high_fuses'
p384
S'0xDA'
p385
sS'low_fuses'
p386
S'0xFF'
p387
sS'lock_bits'
p388
S'0x0F'
p389
sS'file'
p390
S'ATmegaBOOT_168_atmega1280.hex'
p391
sS'path'
p392
S'atmega'
p393
sS'unlock_bits'
p394
S'0x3F'
p395
ssS'upload'
p396
(dp397
S'speed'
p398
S'57600'
p399
sS'maximum_size'
p400
S'126976'
p401
sS'protocol'
p402
S'arduino'
p403
ssS'name'
p404
S'Arduino Mega (ATmega1280)'
p405
sg165
S'/Applications/Arduino.app/Contents/Resources/Java/hardware/arduino'
p406
saa(lp407
S'leonardo'
p408
a(dp409
S'build'
p410
(dp411
S'core'
p412
S'arduino'
p413
sS'f_cpu'
p414
S'16000000L'
p415
sS'vid'
p416
S'0x2341'
p417
sS'pid'
p418
S'0x8036'
p419
sS'variant'
p420
S'leonardo'
p421
sS'mcu'
p422
S'atmega32u4'
p423
ssS'bootloader'
p424
(dp425
S'extended_fuses'
p426
S'0xcb'
p427
sS'high_fuses'
p428
S'0xd8'
p429
sS'low_fuses'
p430
S'0xff'
p431
sS'lock_bits'
p432
S'0x2F'
p433
sS'file'
p434
S'Caterina-Leonardo.hex'
p435
sS'path'
p436
S'caterina'
p437
sS'unlock_bits'
p438
S'0x3F'
p439
ssS'upload'
p440
(dp441
S'speed'
p442
S'57600'
p443
sS'maximum_size'
p444
S'28672'
p445
sS'protocol'
p446
S'avr109'
p447
sS'disable_flushing'
p448
S'true'
p449
ssS'name'
p450
S'Arduino Leonardo'
p451
sg165
S'/Applications/Arduino.app/Contents/Resources/Java/hardware/arduino'
p452
saa(lp453
S'esplora'
p454
a(dp455
S'build'
p456
(dp457
S'core'
p458
S'arduino'
p459
sS'f_cpu'
p460
S'16000000L'
p461
sS'vid'
p462
S'0x2341'
p463
sS'pid'
p464
S'0x803C'
p465
sS'variant'
p466
S'leonardo'
p467
sS'mcu'
p468
S'atmega32u4'
p469
ssS'bootloader'
p470
(dp471
S'extended_fuses'
p472
S'0xcb'
p473
sS'high_fuses'
p474
S'0xd8'
p475
sS'low_fuses'
p476
S'0xff'
p477
sS'lock_bits'
p478
S'0x2F'
p479
sS'file'
p480
S'Caterina-Esplora.hex'
p481
sS'path'
p482
S'caterina'
p483
sS'unlock_bits'
p484
S'0x3F'
p485
ssS'upload'
p486
(dp487
S'speed'
p488
S'57600'
p489
sS'maximum_size'
p490
S'28672'
p491
sS'protocol'
p492
S'avr109'
p493
sS'disable_flushing'
p494
S'true'
p495
ssS'name'
p496
S'Arduino Esplora'
p497
sg165
S'/Applications/Arduino.app/Contents/Resources/Java/hardware/arduino'
p498
saa(lp499
S'micro'
p500
a(dp501
S'build'
p502
(dp503
S'core'
p504
S'arduino'
p505
sS'f_cpu'
p506
S'16000000L'
p507
sS'vid'
p508
S'0x2341'
p509
sS'pid'
p510
S'0x8037'
p511
sS'variant'
p512
S'micro'
p513
sS'mcu'
p514
S'atmega32u4'
p515
ssS'bootloader'
p516
(dp517
S'extended_fuses'
p518
S'0xcb'
p519
sS'high_fuses'
p520
S'0xd8'
p521
sS'low_fuses'
p522
S'0xff'
p523
sS'lock_bits'
p524
S'0x2F'
p525
sS'file'
p526
S'Caterina-Micro.hex'
p527
sS'path'
p528
S'caterina'
p529
sS'unlock_bits'
p530
S'0x3F'
p531
ssS'upload'
p532
(dp533
S'speed'
p534
S'57600'
p535
sS'maximum_size'
p536
S'28672'
p537
sS'protocol'
p538
S'avr109'
p539
sS'disable_flushing'
p540
S'true'
p541
ssS'name'
p542
S'Arduino Micro'
p543
sg165
S'/Applications/Arduino.app/Contents/Resources/Java/hardware/arduino'
p544
saa(lp545
S'mini328'
p546
a(dp547
S'build'
p548
(dp549
S'core'
p550
S'arduino'
p551
sS'mcu'
p552
S'atmega328p'
p553
sS'f_cpu'
p554
S'16000000L'
p555
sS'variant'
p556
S'eightanaloginputs'
p557
ssS'bootloader'
p558
(dp559
S'extended_fuses'
p560
S'0x05'
p561
sS'high_fuses'
p562
S'0xd8'
p563
sS'low_fuses'
p564
S'0xff'
p565
sS'lock_bits'
p566
S'0x0F'
p567
sS'file'
p568
S'optiboot_atmega328-Mini.hex'
p569
sS'path'
p570
S'optiboot'
p571
sS'unlock_bits'
p572
S'0x3F'
p573
ssS'upload'
p574
(dp575
S'speed'
p576
S'115200'
p577
sS'maximum_size'
p578
S'28672'
p579
sS'protocol'
p580
S'arduino'
p581
ssS'name'
p582
S'Arduino Mini w/ ATmega328'
p583
sg165
S'/Applications/Arduino.app/Contents/Resources/Java/hardware/arduino'
p584
saa(lp585
S'mini'
p586
a(dp587
S'build'
p588
(dp589
S'core'
p590
S'arduino'
p591
sS'mcu'
p592
S'atmega168'
p593
sS'f_cpu'
p594
S'16000000L'
p595
sS'variant'
p596
S'eightanaloginputs'
p597
ssS'bootloader'
p598
(dp599
S'extended_fuses'
p600
S'0x00'
p601
sS'high_fuses'
p602
S'0xdd'
p603
sS'low_fuses'
p604
S'0xff'
p605
sS'lock_bits'
p606
S'0x0F'
p607
sS'file'
p608
S'ATmegaBOOT_168_ng.hex'
p609
sS'path'
p610
S'atmega'
p611
sS'unlock_bits'
p612
S'0x3F'
p613
ssS'upload'
p614
(dp615
S'speed'
p616
S'19200'
p617
sS'maximum_size'
p618
S'14336'
p619
sS'protocol'
p620
S'arduino'
p621
ssS'name'
p622
S'Arduino Mini w/ ATmega168'
p623
sg165
S'/Applications/Arduino.app/Contents/Resources/Java/hardware/arduino'
p624
saa(lp625
S'ethernet'
p626
a(dp627
S'build'
p628
(dp629
S'f_cpu'
p630
S'16000000L'
p631
sS'mcu'
p632
S'atmega328p'
p633
sS'variant'
p634
S'standard'
p635
sS'core'
p636
S'arduino'
p637
ssS'bootloader'
p638
(dp639
S'extended_fuses'
p640
S'0x05'
p641
sS'high_fuses'
p642
S'0xde'
p643
sS'low_fuses'
p644
S'0xff'
p645
sS'lock_bits'
p646
S'0x0F'
p647
sS'file'
p648
S'optiboot_atmega328.hex'
p649
sS'path'
p650
S'optiboot'
p651
sS'unlock_bits'
p652
S'0x3F'
p653
ssS'upload'
p654
(dp655
S'speed'
p656
S'115200'
p657
sS'maximum_size'
p658
S'32256'
p659
sS'protocol'
p660
S'arduino'
p661
ssS'name'
p662
S'Arduino Ethernet'
p663
sg165
S'/Applications/Arduino.app/Contents/Resources/Java/hardware/arduino'
p664
saa(lp665
S'fio'
p666
a(dp667
S'build'
p668
(dp669
S'core'
p670
S'arduino'
p671
sS'mcu'
p672
S'atmega328p'
p673
sS'f_cpu'
p674
S'8000000L'
p675
sS'variant'
p676
S'eightanaloginputs'
p677
ssS'bootloader'
p678
(dp679
S'extended_fuses'
p680
S'0x05'
p681
sS'high_fuses'
p682
S'0xDA'
p683
sS'low_fuses'
p684
S'0xFF'
p685
sS'lock_bits'
p686
S'0x0F'
p687
sS'file'
p688
S'ATmegaBOOT_168_atmega328_pro_8MHz.hex'
p689
sS'path'
p690
S'arduino:atmega'
p691
sS'unlock_bits'
p692
S'0x3F'
p693
ssS'upload'
p694
(dp695
S'speed'
p696
S'57600'
p697
sS'maximum_size'
p698
S'30720'
p699
sS'protocol'
p700
S'arduino'
p701
ssS'name'
p702
S'Arduino Fio'
p703
sg165
S'/Applications/Arduino.app/Contents/Resources/Java/hardware/arduino'
p704
saa(lp705
S'bt328'
p706
a(dp707
S'build'
p708
(dp709
S'core'
p710
S'arduino'
p711
sS'mcu'
p712
S'atmega328p'
p713
sS'f_cpu'
p714
S'16000000L'
p715
sS'variant'
p716
S'eightanaloginputs'
p717
ssS'bootloader'
p718
(dp719
S'extended_fuses'
p720
S'0x05'
p721
sS'high_fuses'
p722
S'0xd8'
p723
sS'low_fuses'
p724
S'0xff'
p725
sS'lock_bits'
p726
S'0x0F'
p727
sS'file'
p728
S'ATmegaBOOT_168_atmega328_bt.hex'
p729
sS'path'
p730
S'bt'
p731
sS'unlock_bits'
p732
S'0x3F'
p733
ssS'upload'
p734
(dp735
S'speed'
p736
S'19200'
p737
sS'maximum_size'
p738
S'28672'
p739
sS'protocol'
p740
S'arduino'
p741
sS'disable_flushing'
p742
S'true'
p743
ssS'name'
p744
S'Arduino BT w/ ATmega328'
p745
sg165
S'/Applications/Arduino.app/Contents/Resources/Java/hardware/arduino'
p746
saa(lp747
S'bt'
p748
a(dp749
S'build'
p750
(dp751
S'core'
p752
S'arduino'
p753
sS'mcu'
p754
S'atmega168'
p755
sS'f_cpu'
p756
S'16000000L'
p757
sS'variant'
p758
S'eightanaloginputs'
p759
ssS'bootloader'
p760
(dp761
S'extended_fuses'
p762
S'0x00'
p763
sS'high_fuses'
p764
S'0xdd'
p765
sS'low_fuses'
p766
S'0xff'
p767
sS'lock_bits'
p768
S'0x0F'
p769
sS'file'
p770
S'ATmegaBOOT_168.hex'
p771
sS'path'
p772
S'bt'
p773
sS'unlock_bits'
p774
S'0x3F'
p775
ssS'upload'
p776
(dp777
S'speed'
p778
S'19200'
p779
sS'maximum_size'
p780
S'14336'
p781
sS'protocol'
p782
S'arduino'
p783
sS'disable_flushing'
p784
S'true'
p785
ssS'name'
p786
S'Arduino BT w/ ATmega168'
p787
sg165
S'/Applications/Arduino.app/Contents/Resources/Java/hardware/arduino'
p788
saa(lp789
S'LilyPadUSB'
p790
a(dp791
S'build'
p792
(dp793
S'core'
p794
S'arduino'
p795
sS'f_cpu'
p796
S'8000000L'
p797
sS'vid'
p798
S'0x1B4F'
p799
sS'pid'
p800
S'0x9208'
p801
sS'variant'
p802
S'leonardo'
p803
sS'mcu'
p804
S'atmega32u4'
p805
ssS'bootloader'
p806
(dp807
S'extended_fuses'
p808
S'0xce'
p809
sS'high_fuses'
p810
S'0xd8'
p811
sS'low_fuses'
p812
S'0xff'
p813
sS'lock_bits'
p814
S'0x2F'
p815
sS'file'
p816
S'Caterina-LilyPadUSB.hex'
p817
sS'path'
p818
S'caterina-LilyPadUSB'
p819
sS'unlock_bits'
p820
S'0x3F'
p821
ssS'upload'
p822
(dp823
S'speed'
p824
S'57600'
p825
sS'maximum_size'
p826
S'28672'
p827
sS'protocol'
p828
S'avr109'
p829
sS'disable_flushing'
p830
S'true'
p831
ssS'name'
p832
S'LilyPad Arduino USB'
p833
sg165
S'/Applications/Arduino.app/Contents/Resources/Java/hardware/arduino'
p834
saa(lp835
S'lilypad328'
p836
a(dp837
S'build'
p838
(dp839
S'core'
p840
S'arduino'
p841
sS'mcu'
p842
S'atmega328p'
p843
sS'f_cpu'
p844
S'8000000L'
p845
sS'variant'
p846
S'standard'
p847
ssS'bootloader'
p848
(dp849
S'extended_fuses'
p850
S'0x05'
p851
sS'high_fuses'
p852
S'0xDA'
p853
sS'low_fuses'
p854
S'0xFF'
p855
sS'lock_bits'
p856
S'0x0F'
p857
sS'file'
p858
S'ATmegaBOOT_168_atmega328_pro_8MHz.hex'
p859
sS'path'
p860
S'atmega'
p861
sS'unlock_bits'
p862
S'0x3F'
p863
ssS'upload'
p864
(dp865
S'speed'
p866
S'57600'
p867
sS'maximum_size'
p868
S'30720'
p869
sS'protocol'
p870
S'arduino'
p871
ssS'name'
p872
S'LilyPad Arduino w/ ATmega328'
p873
sg165
S'/Applications/Arduino.app/Contents/Resources/Java/hardware/arduino'
p874
saa(lp875
S'lilypad'
p876
a(dp877
S'build'
p878
(dp879
S'core'
p880
S'arduino'
p881
sS'mcu'
p882
S'atmega168'
p883
sS'f_cpu'
p884
S'8000000L'
p885
sS'variant'
p886
S'standard'
p887
ssS'bootloader'
p888
(dp889
S'extended_fuses'
p890
S'0x00'
p891
sS'high_fuses'
p892
S'0xdd'
p893
sS'low_fuses'
p894
S'0xe2'
p895
sS'lock_bits'
p896
S'0x0F'
p897
sS'file'
p898
S'LilyPadBOOT_168.hex'
p899
sS'path'
p900
S'lilypad'
p901
sS'unlock_bits'
p902
S'0x3F'
p903
ssS'upload'
p904
(dp905
S'speed'
p906
S'19200'
p907
sS'maximum_size'
p908
S'14336'
p909
sS'protocol'
p910
S'arduino'
p911
ssS'name'
p912
S'LilyPad Arduino w/ ATmega168'
p913
sg165
S'/Applications/Arduino.app/Contents/Resources/Java/hardware/arduino'
p914
saa(lp915
S'pro5v328'
p916
a(dp917
S'build'
p918
(dp919
S'core'
p920
S'arduino'
p921
sS'mcu'
p922
S'atmega328p'
p923
sS'f_cpu'
p924
S'16000000L'
p925
sS'variant'
p926
S'standard'
p927
ssS'bootloader'
p928
(dp929
S'extended_fuses'
p930
S'0x05'
p931
sS'high_fuses'
p932
S'0xDA'
p933
sS'low_fuses'
p934
S'0xFF'
p935
sS'lock_bits'
p936
S'0x0F'
p937
sS'file'
p938
S'ATmegaBOOT_168_atmega328.hex'
p939
sS'path'
p940
S'atmega'
p941
sS'unlock_bits'
p942
S'0x3F'
p943
ssS'upload'
p944
(dp945
S'speed'
p946
S'57600'
p947
sS'maximum_size'
p948
S'30720'
p949
sS'protocol'
p950
S'arduino'
p951
ssS'name'
p952
S'Arduino Pro or Pro Mini (5V, 16 MHz) w/ ATmega328'
p953
sg165
S'/Applications/Arduino.app/Contents/Resources/Java/hardware/arduino'
p954
saa(lp955
S'pro5v'
p956
a(dp957
S'build'
p958
(dp959
S'core'
p960
S'arduino'
p961
sS'mcu'
p962
S'atmega168'
p963
sS'f_cpu'
p964
S'16000000L'
p965
sS'variant'
p966
S'standard'
p967
ssS'bootloader'
p968
(dp969
S'extended_fuses'
p970
S'0x00'
p971
sS'high_fuses'
p972
S'0xdd'
p973
sS'low_fuses'
p974
S'0xff'
p975
sS'lock_bits'
p976
S'0x0F'
p977
sS'file'
p978
S'ATmegaBOOT_168_diecimila.hex'
p979
sS'path'
p980
S'atmega'
p981
sS'unlock_bits'
p982
S'0x3F'
p983
ssS'upload'
p984
(dp985
S'speed'
p986
S'19200'
p987
sS'maximum_size'
p988
S'14336'
p989
sS'protocol'
p990
S'arduino'
p991
ssS'name'
p992
S'Arduino Pro or Pro Mini (5V, 16 MHz) w/ ATmega168'
p993
sg165
S'/Applications/Arduino.app/Contents/Resources/Java/hardware/arduino'
p994
saa(lp995
S'pro328'
p996
a(dp997
S'build'
p998
(dp999
S'core'
p1000
S'arduino'
p1001
sS'mcu'
p1002
S'atmega328p'
p1003
sS'f_cpu'
p1004
S'8000000L'
p1005
sS'variant'
p1006
S'standard'
p1007
ssS'bootloader'
p1008
(dp1009
S'extended_fuses'
p1010
S'0x05'
p1011
sS'high_fuses'
p1012
S'0xDA'
p1013
sS'low_fuses'
p1014
S'0xFF'
p1015
sS'lock_bits'
p1016
S'0x0F'
p1017
sS'file'
p1018
S'ATmegaBOOT_168_atmega328_pro_8MHz.hex'
p1019
sS'path'
p1020
S'atmega'
p1021
sS'unlock_bits'
p1022
S'0x3F'
p1023
ssS'upload'
p1024
(dp1025
S'speed'
p1026
S'57600'
p1027
sS'maximum_size'
p1028
S'30720'
p1029
sS'protocol'
p1030
S'arduino'
p1031
ssS'name'
p1032
S'Arduino Pro or Pro Mini (3.3V, 8 MHz) w/ ATmega328'
p1033
sg165
S'/Applications/Arduino.app/Contents/Resources/Java/hardware/arduino'
p1034
saa(lp1035
S'pro'
p1036
a(dp1037
S'build'
p1038
(dp1039
S'core'
p1040
S'arduino'
p1041
sS'mcu'
p1042
S'atmega168'
p1043
sS'f_cpu'
p1044
S'8000000L'
p1045
sS'variant'
p1046
S'standard'
p1047
ssS'bootloader'
p1048
(dp1049
S'extended_fuses'
p1050
S'0x00'
p1051
sS'high_fuses'
p1052
S'0xdd'
p1053
sS'low_fuses'
p1054
S'0xc6'
p1055
sS'lock_bits'
p1056
S'0x0F'
p1057
sS'file'
p1058
S'ATmegaBOOT_168_pro_8MHz.hex'
p1059
sS'path'
p1060
S'atmega'
p1061
sS'unlock_bits'
p1062
S'0x3F'
p1063
ssS'upload'
p1064
(dp1065
S'speed'
p1066
S'19200'
p1067
sS'maximum_size'
p1068
S'14336'
p1069
sS'protocol'
p1070
S'arduino'
p1071
ssS'name'
p1072
S'Arduino Pro or Pro Mini (3.3V, 8 MHz) w/ ATmega168'
p1073
sg165
S'/Applications/Arduino.app/Contents/Resources/Java/hardware/arduino'
p1074
saa(lp1075
S'atmega168'
p1076
a(dp1077
S'build'
p1078
(dp1079
S'core'
p1080
S'arduino'
p1081
sS'mcu'
p1082
S'atmega168'
p1083
sS'f_cpu'
p1084
S'16000000L'
p1085
sS'variant'
p1086
S'standard'
p1087
ssS'bootloader'
p1088
(dp1089
S'extended_fuses'
p1090
S'0x00'
p1091
sS'high_fuses'
p1092
S'0xdd'
p1093
sS'low_fuses'
p1094
S'0xff'
p1095
sS'lock_bits'
p1096
S'0x0F'
p1097
sS'file'
p1098
S'ATmegaBOOT_168_ng.hex'
p1099
sS'path'
p1100
S'atmega'
p1101
sS'unlock_bits'
p1102
S'0x3F'
p1103
ssS'upload'
p1104
(dp1105
S'speed'
p1106
S'19200'
p1107
sS'maximum_size'
p1108
S'14336'
p1109
sS'protocol'
p1110
S'arduino'
p1111
ssS'name'
p1112
S'Arduino NG or older w/ ATmega168'
p1113
sg165
S'/Applications/Arduino.app/Contents/Resources/Java/hardware/arduino'
p1114
saa(lp1115
S'atmega8'
p1116
a(dp1117
S'build'
p1118
(dp1119
S'core'
p1120
S'arduino'
p1121
sS'mcu'
p1122
S'atmega8'
p1123
sS'f_cpu'
p1124
S'16000000L'
p1125
sS'variant'
p1126
S'standard'
p1127
ssS'bootloader'
p1128
(dp1129
S'high_fuses'
p1130
S'0xca'
p1131
sS'low_fuses'
p1132
S'0xdf'
p1133
sS'lock_bits'
p1134
S'0x0F'
p1135
sS'file'
p1136
S'ATmegaBOOT-prod-firmware-2009-11-07.hex'
p1137
sS'path'
p1138
S'atmega8'
p1139
sS'unlock_bits'
p1140
S'0x3F'
p1141
ssS'upload'
p1142
(dp1143
S'speed'
p1144
S'19200'
p1145
sS'maximum_size'
p1146
S'7168'
p1147
sS'protocol'
p1148
S'arduino'
p1149
ssS'name'
p1150
S'Arduino NG or older w/ ATmega8'
p1151
sg165
S'/Applications/Arduino.app/Contents/Resources/Java/hardware/arduino'
p1152
saa(lp1153
S'robotControl'
p1154
a(dp1155
S'build'
p1156
(dp1157
S'core'
p1158
S'robot'
p1159
sS'f_cpu'
p1160
S'16000000L'
p1161
sS'vid'
p1162
S'0x2341'
p1163
sS'pid'
p1164
S'0x8038'
p1165
sS'variant'
p1166
S'robot_control'
p1167
sS'mcu'
p1168
S'atmega32u4'
p1169
ssS'bootloader'
p1170
(dp1171
S'extended_fuses'
p1172
S'0xcb'
p1173
sS'high_fuses'
p1174
S'0xd8'
p1175
sS'low_fuses'
p1176
S'0xff'
p1177
sS'lock_bits'
p1178
S'0x2F'
p1179
sS'file'
p1180
S'Caterina-Robot-Control.hex'
p1181
sS'path'
p1182
S'caterina-Arduino_Robot'
p1183
sS'unlock_bits'
p1184
S'0x3F'
p1185
ssS'upload'
p1186
(dp1187
S'speed'
p1188
S'57600'
p1189
sS'maximum_size'
p1190
S'28672'
p1191
sS'protocol'
p1192
S'avr109'
p1193
sS'disable_flushing'
p1194
S'true'
p1195
ssS'name'
p1196
S'Arduino Robot Control'
p1197
sg165
S'/Applications/Arduino.app/Contents/Resources/Java/hardware/arduino'
p1198
saa(lp1199
S'robotMotor'
p1200
a(dp1201
S'build'
p1202
(dp1203
S'core'
p1204
S'robot'
p1205
sS'f_cpu'
p1206
S'16000000L'
p1207
sS'vid'
p1208
S'0x2341'
p1209
sS'pid'
p1210
S'0x8039'
p1211
sS'variant'
p1212
S'robot_motor'
p1213
sS'mcu'
p1214
S'atmega32u4'
p1215
ssS'bootloader'
p1216
(dp1217
S'extended_fuses'
p1218
S'0xcb'
p1219
sS'high_fuses'
p1220
S'0xd8'
p1221
sS'low_fuses'
p1222
S'0xff'
p1223
sS'lock_bits'
p1224
S'0x2F'
p1225
sS'file'
p1226
S'Caterina-Robot-Motor.hex'
p1227
sS'path'
p1228
S'caterina-Arduino_Robot'
p1229
sS'unlock_bits'
p1230
S'0x3F'
p1231
ssS'upload'
p1232
(dp1233
S'speed'
p1234
S'57600'
p1235
sS'maximum_size'
p1236
S'28672'
p1237
sS'protocol'
p1238
S'avr109'
p1239
sS'disable_flushing'
p1240
S'true'
p1241
ssS'name'
p1242
S'Arduino Robot Motor'
p1243
sg165
S'/Applications/Arduino.app/Contents/Resources/Java/hardware/arduino'
p1244
saatp1245
Rp1246
(dp1247
S'default'
p1248
S'uno'
p1249
sbtp1250
a(S'cxx'
p1251
S'/Applications/Arduino.app/Contents/Resources/Java/hardware/tools/avr/bin/avr-g++'
p1252
tp1253
a.