(lp0
(S'cppflags'
p1
ccopy_reg
_reconstructor
p2
(cino.utils
SpaceList
p3
c__builtin__
list
p4
(lp5
S'-mmcu=atmega2560'
p6
aS'-DF_CPU=16000000L'
p7
aS'-DARDUINO=105'
p8
aS'-I/Applications/Arduino.app/Contents/Resources/Java/hardware/arduino/cores/arduino'
p9
aS'-ffunction-sections'
p10
aS'-fdata-sections'
p11
aS'-g'
p12
aS'-Os'
p13
aS'-w'
p14
aS'-I/Applications/Arduino.app/Contents/Resources/Java/hardware/arduino/variants/mega'
p15
aS'-Ilib/OneWire'
p16
aS'-Ilib/RTClib'
p17
aS'-Ilib/EEPROMEx'
p18
aS'-Ilib/EEPROMEx/Examples'
p19
aS'-Ilib/EEPROMEx/Examples/EEPROMEx'
p20
aS'-Ilib/EEPROMEx/Examples/EEPROMVar'
p21
aS'-Ilib/SD'
p22
aS'-Ilib/SD/utility'
p23
aS'-Ilib/DHT'
p24
aS'-Ilib/Wire'
p25
aS'-Ilib/Wire/utility'
p26
aS'-Ilib/SPI'
p27
aS'-I/Applications/Arduino.app/Contents/Resources/Java/hardware/arduino/cores/arduino'
p28
aS'-I/Applications/Arduino.app/Contents/Resources/Java/hardware/arduino/cores/arduino/avr-libc'
p29
atp30
Rp31
tp32
a(S'cxx'
p33
S'/Applications/Arduino.app/Contents/Resources/Java/hardware/tools/avr/bin/avr-g++'
p34
tp35
a(S'arduino_libraries_dir'
p36
S'/Applications/Arduino.app/Contents/Resources/Java/libraries'
p37
tp38
a(S'avrdude'
p39
S'/Applications/Arduino.app/Contents/Resources/Java/hardware/tools/avr/bin/avrdude'
p40
tp41
a(S'ar'
p42
S'/Applications/Arduino.app/Contents/Resources/Java/hardware/tools/avr/bin/avr-ar'
p43
tp44
a(S'names'
p45
(dp46
S'cpp'
p47
S'%s.cpp'
p48
sS'obj'
p49
S'%s.o'
p50
sS'lib'
p51
S'lib%s.a'
p52
sS'deps'
p53
S'%s.d'
p54
stp55
a(S'ldflags'
p56
g2
(g3
g4
(lp57
g6
aS'-Wl,-Os'
p58
aS'-Wl,--gc-sections'
p59
atp60
Rp61
tp62
a(S'arduino_lib_version'
p63
g2
(cino.environment
Version
p64
c__builtin__
tuple
p65
(I1
I0
I5
tp66
tp67
Rp68
tp69
a(S'objcopy'
p70
S'/Applications/Arduino.app/Contents/Resources/Java/hardware/tools/avr/bin/avr-objcopy'
p71
tp72
a(S'board_models'
p73
cino.environment
BoardModels
p74
((lp75
(lp76
S'uno'
p77
a(dp78
S'_coredir'
p79
S'/Applications/Arduino.app/Contents/Resources/Java/hardware/arduino'
p80
sS'bootloader'
p81
(dp82
S'extended_fuses'
p83
S'0x05'
p84
sS'high_fuses'
p85
S'0xde'
p86
sS'low_fuses'
p87
S'0xff'
p88
sS'lock_bits'
p89
S'0x0F'
p90
sS'file'
p91
S'optiboot_atmega328.hex'
p92
sS'path'
p93
S'optiboot'
p94
sS'unlock_bits'
p95
S'0x3F'
p96
ssS'build'
p97
(dp98
S'core'
p99
S'arduino'
p100
sS'mcu'
p101
S'atmega328p'
p102
sS'f_cpu'
p103
S'16000000L'
p104
sS'variant'
p105
S'standard'
p106
ssS'name'
p107
S'Arduino Uno'
p108
sS'upload'
p109
(dp110
S'protocol'
p111
S'arduino'
p112
sS'maximum_size'
p113
S'32256'
p114
sS'speed'
p115
S'115200'
p116
ssaa(lp117
S'atmega328'
p118
a(dp119
g79
S'/Applications/Arduino.app/Contents/Resources/Java/hardware/arduino'
p120
sS'bootloader'
p121
(dp122
S'extended_fuses'
p123
S'0x05'
p124
sS'high_fuses'
p125
S'0xDA'
p126
sS'low_fuses'
p127
S'0xFF'
p128
sS'lock_bits'
p129
S'0x0F'
p130
sS'file'
p131
S'ATmegaBOOT_168_atmega328.hex'
p132
sS'path'
p133
S'atmega'
p134
sS'unlock_bits'
p135
S'0x3F'
p136
ssS'build'
p137
(dp138
S'core'
p139
S'arduino'
p140
sS'mcu'
p141
S'atmega328p'
p142
sS'f_cpu'
p143
S'16000000L'
p144
sS'variant'
p145
S'standard'
p146
ssS'name'
p147
S'Arduino Duemilanove w/ ATmega328'
p148
sS'upload'
p149
(dp150
S'protocol'
p151
S'arduino'
p152
sS'maximum_size'
p153
S'30720'
p154
sS'speed'
p155
S'57600'
p156
ssaa(lp157
S'diecimila'
p158
a(dp159
g79
S'/Applications/Arduino.app/Contents/Resources/Java/hardware/arduino'
p160
sS'bootloader'
p161
(dp162
S'extended_fuses'
p163
S'0x00'
p164
sS'high_fuses'
p165
S'0xdd'
p166
sS'low_fuses'
p167
S'0xff'
p168
sS'lock_bits'
p169
S'0x0F'
p170
sS'file'
p171
S'ATmegaBOOT_168_diecimila.hex'
p172
sS'path'
p173
S'atmega'
p174
sS'unlock_bits'
p175
S'0x3F'
p176
ssS'build'
p177
(dp178
S'core'
p179
S'arduino'
p180
sS'mcu'
p181
S'atmega168'
p182
sS'f_cpu'
p183
S'16000000L'
p184
sS'variant'
p185
S'standard'
p186
ssS'name'
p187
S'Arduino Diecimila or Duemilanove w/ ATmega168'
p188
sS'upload'
p189
(dp190
S'protocol'
p191
S'arduino'
p192
sS'maximum_size'
p193
S'14336'
p194
sS'speed'
p195
S'19200'
p196
ssaa(lp197
S'nano328'
p198
a(dp199
g79
S'/Applications/Arduino.app/Contents/Resources/Java/hardware/arduino'
p200
sS'bootloader'
p201
(dp202
S'extended_fuses'
p203
S'0x05'
p204
sS'high_fuses'
p205
S'0xDA'
p206
sS'low_fuses'
p207
S'0xFF'
p208
sS'lock_bits'
p209
S'0x0F'
p210
sS'file'
p211
S'ATmegaBOOT_168_atmega328.hex'
p212
sS'path'
p213
S'atmega'
p214
sS'unlock_bits'
p215
S'0x3F'
p216
ssS'build'
p217
(dp218
S'core'
p219
S'arduino'
p220
sS'mcu'
p221
S'atmega328p'
p222
sS'f_cpu'
p223
S'16000000L'
p224
sS'variant'
p225
S'eightanaloginputs'
p226
ssS'name'
p227
S'Arduino Nano w/ ATmega328'
p228
sS'upload'
p229
(dp230
S'protocol'
p231
S'arduino'
p232
sS'maximum_size'
p233
S'30720'
p234
sS'speed'
p235
S'57600'
p236
ssaa(lp237
S'nano'
p238
a(dp239
g79
S'/Applications/Arduino.app/Contents/Resources/Java/hardware/arduino'
p240
sS'bootloader'
p241
(dp242
S'extended_fuses'
p243
S'0x00'
p244
sS'high_fuses'
p245
S'0xdd'
p246
sS'low_fuses'
p247
S'0xff'
p248
sS'lock_bits'
p249
S'0x0F'
p250
sS'file'
p251
S'ATmegaBOOT_168_diecimila.hex'
p252
sS'path'
p253
S'atmega'
p254
sS'unlock_bits'
p255
S'0x3F'
p256
ssS'build'
p257
(dp258
S'core'
p259
S'arduino'
p260
sS'mcu'
p261
S'atmega168'
p262
sS'f_cpu'
p263
S'16000000L'
p264
sS'variant'
p265
S'eightanaloginputs'
p266
ssS'name'
p267
S'Arduino Nano w/ ATmega168'
p268
sS'upload'
p269
(dp270
S'protocol'
p271
S'arduino'
p272
sS'maximum_size'
p273
S'14336'
p274
sS'speed'
p275
S'19200'
p276
ssaa(lp277
S'mega2560'
p278
a(dp279
g79
S'/Applications/Arduino.app/Contents/Resources/Java/hardware/arduino'
p280
sS'bootloader'
p281
(dp282
S'extended_fuses'
p283
S'0xFD'
p284
sS'high_fuses'
p285
S'0xD8'
p286
sS'low_fuses'
p287
S'0xFF'
p288
sS'lock_bits'
p289
S'0x0F'
p290
sS'file'
p291
S'stk500boot_v2_mega2560.hex'
p292
sS'path'
p293
S'stk500v2'
p294
sS'unlock_bits'
p295
S'0x3F'
p296
ssS'build'
p297
(dp298
S'core'
p299
S'arduino'
p300
sS'mcu'
p301
S'atmega2560'
p302
sS'f_cpu'
p303
S'16000000L'
p304
sS'variant'
p305
S'mega'
p306
ssS'name'
p307
S'Arduino Mega 2560 or Mega ADK'
p308
sS'upload'
p309
(dp310
S'protocol'
p311
S'wiring'
p312
sS'maximum_size'
p313
S'258048'
p314
sS'speed'
p315
S'115200'
p316
ssaa(lp317
S'mega'
p318
a(dp319
g79
S'/Applications/Arduino.app/Contents/Resources/Java/hardware/arduino'
p320
sS'bootloader'
p321
(dp322
S'extended_fuses'
p323
S'0xF5'
p324
sS'high_fuses'
p325
S'0xDA'
p326
sS'low_fuses'
p327
S'0xFF'
p328
sS'lock_bits'
p329
S'0x0F'
p330
sS'file'
p331
S'ATmegaBOOT_168_atmega1280.hex'
p332
sS'path'
p333
S'atmega'
p334
sS'unlock_bits'
p335
S'0x3F'
p336
ssS'build'
p337
(dp338
S'core'
p339
S'arduino'
p340
sS'mcu'
p341
S'atmega1280'
p342
sS'f_cpu'
p343
S'16000000L'
p344
sS'variant'
p345
S'mega'
p346
ssS'name'
p347
S'Arduino Mega (ATmega1280)'
p348
sS'upload'
p349
(dp350
S'protocol'
p351
S'arduino'
p352
sS'maximum_size'
p353
S'126976'
p354
sS'speed'
p355
S'57600'
p356
ssaa(lp357
S'leonardo'
p358
a(dp359
g79
S'/Applications/Arduino.app/Contents/Resources/Java/hardware/arduino'
p360
sS'bootloader'
p361
(dp362
S'extended_fuses'
p363
S'0xcb'
p364
sS'high_fuses'
p365
S'0xd8'
p366
sS'low_fuses'
p367
S'0xff'
p368
sS'lock_bits'
p369
S'0x2F'
p370
sS'file'
p371
S'Caterina-Leonardo.hex'
p372
sS'path'
p373
S'caterina'
p374
sS'unlock_bits'
p375
S'0x3F'
p376
ssS'build'
p377
(dp378
S'core'
p379
S'arduino'
p380
sS'f_cpu'
p381
S'16000000L'
p382
sS'vid'
p383
S'0x2341'
p384
sS'pid'
p385
S'0x8036'
p386
sS'variant'
p387
S'leonardo'
p388
sS'mcu'
p389
S'atmega32u4'
p390
ssS'name'
p391
S'Arduino Leonardo'
p392
sS'upload'
p393
(dp394
S'protocol'
p395
S'avr109'
p396
sS'maximum_size'
p397
S'28672'
p398
sS'speed'
p399
S'57600'
p400
sS'disable_flushing'
p401
S'true'
p402
ssaa(lp403
S'esplora'
p404
a(dp405
g79
S'/Applications/Arduino.app/Contents/Resources/Java/hardware/arduino'
p406
sS'bootloader'
p407
(dp408
S'extended_fuses'
p409
S'0xcb'
p410
sS'high_fuses'
p411
S'0xd8'
p412
sS'low_fuses'
p413
S'0xff'
p414
sS'lock_bits'
p415
S'0x2F'
p416
sS'file'
p417
S'Caterina-Esplora.hex'
p418
sS'path'
p419
S'caterina'
p420
sS'unlock_bits'
p421
S'0x3F'
p422
ssS'build'
p423
(dp424
S'core'
p425
S'arduino'
p426
sS'f_cpu'
p427
S'16000000L'
p428
sS'vid'
p429
S'0x2341'
p430
sS'pid'
p431
S'0x803C'
p432
sS'variant'
p433
S'leonardo'
p434
sS'mcu'
p435
S'atmega32u4'
p436
ssS'name'
p437
S'Arduino Esplora'
p438
sS'upload'
p439
(dp440
S'protocol'
p441
S'avr109'
p442
sS'maximum_size'
p443
S'28672'
p444
sS'speed'
p445
S'57600'
p446
sS'disable_flushing'
p447
S'true'
p448
ssaa(lp449
S'micro'
p450
a(dp451
g79
S'/Applications/Arduino.app/Contents/Resources/Java/hardware/arduino'
p452
sS'bootloader'
p453
(dp454
S'extended_fuses'
p455
S'0xcb'
p456
sS'high_fuses'
p457
S'0xd8'
p458
sS'low_fuses'
p459
S'0xff'
p460
sS'lock_bits'
p461
S'0x2F'
p462
sS'file'
p463
S'Caterina-Micro.hex'
p464
sS'path'
p465
S'caterina'
p466
sS'unlock_bits'
p467
S'0x3F'
p468
ssS'build'
p469
(dp470
S'core'
p471
S'arduino'
p472
sS'f_cpu'
p473
S'16000000L'
p474
sS'vid'
p475
S'0x2341'
p476
sS'pid'
p477
S'0x8037'
p478
sS'variant'
p479
S'micro'
p480
sS'mcu'
p481
S'atmega32u4'
p482
ssS'name'
p483
S'Arduino Micro'
p484
sS'upload'
p485
(dp486
S'protocol'
p487
S'avr109'
p488
sS'maximum_size'
p489
S'28672'
p490
sS'speed'
p491
S'57600'
p492
sS'disable_flushing'
p493
S'true'
p494
ssaa(lp495
S'mini328'
p496
a(dp497
g79
S'/Applications/Arduino.app/Contents/Resources/Java/hardware/arduino'
p498
sS'bootloader'
p499
(dp500
S'extended_fuses'
p501
S'0x05'
p502
sS'high_fuses'
p503
S'0xd8'
p504
sS'low_fuses'
p505
S'0xff'
p506
sS'lock_bits'
p507
S'0x0F'
p508
sS'file'
p509
S'optiboot_atmega328-Mini.hex'
p510
sS'path'
p511
S'optiboot'
p512
sS'unlock_bits'
p513
S'0x3F'
p514
ssS'build'
p515
(dp516
S'core'
p517
S'arduino'
p518
sS'mcu'
p519
S'atmega328p'
p520
sS'f_cpu'
p521
S'16000000L'
p522
sS'variant'
p523
S'eightanaloginputs'
p524
ssS'name'
p525
S'Arduino Mini w/ ATmega328'
p526
sS'upload'
p527
(dp528
S'protocol'
p529
S'arduino'
p530
sS'maximum_size'
p531
S'28672'
p532
sS'speed'
p533
S'115200'
p534
ssaa(lp535
S'mini'
p536
a(dp537
g79
S'/Applications/Arduino.app/Contents/Resources/Java/hardware/arduino'
p538
sS'bootloader'
p539
(dp540
S'extended_fuses'
p541
S'0x00'
p542
sS'high_fuses'
p543
S'0xdd'
p544
sS'low_fuses'
p545
S'0xff'
p546
sS'lock_bits'
p547
S'0x0F'
p548
sS'file'
p549
S'ATmegaBOOT_168_ng.hex'
p550
sS'path'
p551
S'atmega'
p552
sS'unlock_bits'
p553
S'0x3F'
p554
ssS'build'
p555
(dp556
S'core'
p557
S'arduino'
p558
sS'mcu'
p559
S'atmega168'
p560
sS'f_cpu'
p561
S'16000000L'
p562
sS'variant'
p563
S'eightanaloginputs'
p564
ssS'name'
p565
S'Arduino Mini w/ ATmega168'
p566
sS'upload'
p567
(dp568
S'protocol'
p569
S'arduino'
p570
sS'maximum_size'
p571
S'14336'
p572
sS'speed'
p573
S'19200'
p574
ssaa(lp575
S'ethernet'
p576
a(dp577
g79
S'/Applications/Arduino.app/Contents/Resources/Java/hardware/arduino'
p578
sS'bootloader'
p579
(dp580
S'extended_fuses'
p581
S'0x05'
p582
sS'high_fuses'
p583
S'0xde'
p584
sS'low_fuses'
p585
S'0xff'
p586
sS'lock_bits'
p587
S'0x0F'
p588
sS'file'
p589
S'optiboot_atmega328.hex'
p590
sS'path'
p591
S'optiboot'
p592
sS'unlock_bits'
p593
S'0x3F'
p594
ssS'build'
p595
(dp596
S'variant'
p597
S'standard'
p598
sS'mcu'
p599
S'atmega328p'
p600
sS'f_cpu'
p601
S'16000000L'
p602
sS'core'
p603
S'arduino'
p604
ssS'name'
p605
S'Arduino Ethernet'
p606
sS'upload'
p607
(dp608
S'protocol'
p609
S'arduino'
p610
sS'maximum_size'
p611
S'32256'
p612
sS'speed'
p613
S'115200'
p614
ssaa(lp615
S'fio'
p616
a(dp617
g79
S'/Applications/Arduino.app/Contents/Resources/Java/hardware/arduino'
p618
sS'bootloader'
p619
(dp620
S'extended_fuses'
p621
S'0x05'
p622
sS'high_fuses'
p623
S'0xDA'
p624
sS'low_fuses'
p625
S'0xFF'
p626
sS'lock_bits'
p627
S'0x0F'
p628
sS'file'
p629
S'ATmegaBOOT_168_atmega328_pro_8MHz.hex'
p630
sS'path'
p631
S'arduino:atmega'
p632
sS'unlock_bits'
p633
S'0x3F'
p634
ssS'build'
p635
(dp636
S'core'
p637
S'arduino'
p638
sS'mcu'
p639
S'atmega328p'
p640
sS'f_cpu'
p641
S'8000000L'
p642
sS'variant'
p643
S'eightanaloginputs'
p644
ssS'name'
p645
S'Arduino Fio'
p646
sS'upload'
p647
(dp648
S'protocol'
p649
S'arduino'
p650
sS'maximum_size'
p651
S'30720'
p652
sS'speed'
p653
S'57600'
p654
ssaa(lp655
S'bt328'
p656
a(dp657
g79
S'/Applications/Arduino.app/Contents/Resources/Java/hardware/arduino'
p658
sS'bootloader'
p659
(dp660
S'extended_fuses'
p661
S'0x05'
p662
sS'high_fuses'
p663
S'0xd8'
p664
sS'low_fuses'
p665
S'0xff'
p666
sS'lock_bits'
p667
S'0x0F'
p668
sS'file'
p669
S'ATmegaBOOT_168_atmega328_bt.hex'
p670
sS'path'
p671
S'bt'
p672
sS'unlock_bits'
p673
S'0x3F'
p674
ssS'build'
p675
(dp676
S'core'
p677
S'arduino'
p678
sS'mcu'
p679
S'atmega328p'
p680
sS'f_cpu'
p681
S'16000000L'
p682
sS'variant'
p683
S'eightanaloginputs'
p684
ssS'name'
p685
S'Arduino BT w/ ATmega328'
p686
sS'upload'
p687
(dp688
S'protocol'
p689
S'arduino'
p690
sS'maximum_size'
p691
S'28672'
p692
sS'speed'
p693
S'19200'
p694
sS'disable_flushing'
p695
S'true'
p696
ssaa(lp697
S'bt'
p698
a(dp699
g79
S'/Applications/Arduino.app/Contents/Resources/Java/hardware/arduino'
p700
sS'bootloader'
p701
(dp702
S'extended_fuses'
p703
S'0x00'
p704
sS'high_fuses'
p705
S'0xdd'
p706
sS'low_fuses'
p707
S'0xff'
p708
sS'lock_bits'
p709
S'0x0F'
p710
sS'file'
p711
S'ATmegaBOOT_168.hex'
p712
sS'path'
p713
S'bt'
p714
sS'unlock_bits'
p715
S'0x3F'
p716
ssS'build'
p717
(dp718
S'core'
p719
S'arduino'
p720
sS'mcu'
p721
S'atmega168'
p722
sS'f_cpu'
p723
S'16000000L'
p724
sS'variant'
p725
S'eightanaloginputs'
p726
ssS'name'
p727
S'Arduino BT w/ ATmega168'
p728
sS'upload'
p729
(dp730
S'protocol'
p731
S'arduino'
p732
sS'maximum_size'
p733
S'14336'
p734
sS'speed'
p735
S'19200'
p736
sS'disable_flushing'
p737
S'true'
p738
ssaa(lp739
S'LilyPadUSB'
p740
a(dp741
g79
S'/Applications/Arduino.app/Contents/Resources/Java/hardware/arduino'
p742
sS'bootloader'
p743
(dp744
S'extended_fuses'
p745
S'0xce'
p746
sS'high_fuses'
p747
S'0xd8'
p748
sS'low_fuses'
p749
S'0xff'
p750
sS'lock_bits'
p751
S'0x2F'
p752
sS'file'
p753
S'Caterina-LilyPadUSB.hex'
p754
sS'path'
p755
S'caterina-LilyPadUSB'
p756
sS'unlock_bits'
p757
S'0x3F'
p758
ssS'build'
p759
(dp760
S'core'
p761
S'arduino'
p762
sS'f_cpu'
p763
S'8000000L'
p764
sS'vid'
p765
S'0x1B4F'
p766
sS'pid'
p767
S'0x9208'
p768
sS'variant'
p769
S'leonardo'
p770
sS'mcu'
p771
S'atmega32u4'
p772
ssS'name'
p773
S'LilyPad Arduino USB'
p774
sS'upload'
p775
(dp776
S'protocol'
p777
S'avr109'
p778
sS'maximum_size'
p779
S'28672'
p780
sS'speed'
p781
S'57600'
p782
sS'disable_flushing'
p783
S'true'
p784
ssaa(lp785
S'lilypad328'
p786
a(dp787
g79
S'/Applications/Arduino.app/Contents/Resources/Java/hardware/arduino'
p788
sS'bootloader'
p789
(dp790
S'extended_fuses'
p791
S'0x05'
p792
sS'high_fuses'
p793
S'0xDA'
p794
sS'low_fuses'
p795
S'0xFF'
p796
sS'lock_bits'
p797
S'0x0F'
p798
sS'file'
p799
S'ATmegaBOOT_168_atmega328_pro_8MHz.hex'
p800
sS'path'
p801
S'atmega'
p802
sS'unlock_bits'
p803
S'0x3F'
p804
ssS'build'
p805
(dp806
S'core'
p807
S'arduino'
p808
sS'mcu'
p809
S'atmega328p'
p810
sS'f_cpu'
p811
S'8000000L'
p812
sS'variant'
p813
S'standard'
p814
ssS'name'
p815
S'LilyPad Arduino w/ ATmega328'
p816
sS'upload'
p817
(dp818
S'protocol'
p819
S'arduino'
p820
sS'maximum_size'
p821
S'30720'
p822
sS'speed'
p823
S'57600'
p824
ssaa(lp825
S'lilypad'
p826
a(dp827
g79
S'/Applications/Arduino.app/Contents/Resources/Java/hardware/arduino'
p828
sS'bootloader'
p829
(dp830
S'extended_fuses'
p831
S'0x00'
p832
sS'high_fuses'
p833
S'0xdd'
p834
sS'low_fuses'
p835
S'0xe2'
p836
sS'lock_bits'
p837
S'0x0F'
p838
sS'file'
p839
S'LilyPadBOOT_168.hex'
p840
sS'path'
p841
S'lilypad'
p842
sS'unlock_bits'
p843
S'0x3F'
p844
ssS'build'
p845
(dp846
S'core'
p847
S'arduino'
p848
sS'mcu'
p849
S'atmega168'
p850
sS'f_cpu'
p851
S'8000000L'
p852
sS'variant'
p853
S'standard'
p854
ssS'name'
p855
S'LilyPad Arduino w/ ATmega168'
p856
sS'upload'
p857
(dp858
S'protocol'
p859
S'arduino'
p860
sS'maximum_size'
p861
S'14336'
p862
sS'speed'
p863
S'19200'
p864
ssaa(lp865
S'pro5v328'
p866
a(dp867
g79
S'/Applications/Arduino.app/Contents/Resources/Java/hardware/arduino'
p868
sS'bootloader'
p869
(dp870
S'extended_fuses'
p871
S'0x05'
p872
sS'high_fuses'
p873
S'0xDA'
p874
sS'low_fuses'
p875
S'0xFF'
p876
sS'lock_bits'
p877
S'0x0F'
p878
sS'file'
p879
S'ATmegaBOOT_168_atmega328.hex'
p880
sS'path'
p881
S'atmega'
p882
sS'unlock_bits'
p883
S'0x3F'
p884
ssS'build'
p885
(dp886
S'core'
p887
S'arduino'
p888
sS'mcu'
p889
S'atmega328p'
p890
sS'f_cpu'
p891
S'16000000L'
p892
sS'variant'
p893
S'standard'
p894
ssS'name'
p895
S'Arduino Pro or Pro Mini (5V, 16 MHz) w/ ATmega328'
p896
sS'upload'
p897
(dp898
S'protocol'
p899
S'arduino'
p900
sS'maximum_size'
p901
S'30720'
p902
sS'speed'
p903
S'57600'
p904
ssaa(lp905
S'pro5v'
p906
a(dp907
g79
S'/Applications/Arduino.app/Contents/Resources/Java/hardware/arduino'
p908
sS'bootloader'
p909
(dp910
S'extended_fuses'
p911
S'0x00'
p912
sS'high_fuses'
p913
S'0xdd'
p914
sS'low_fuses'
p915
S'0xff'
p916
sS'lock_bits'
p917
S'0x0F'
p918
sS'file'
p919
S'ATmegaBOOT_168_diecimila.hex'
p920
sS'path'
p921
S'atmega'
p922
sS'unlock_bits'
p923
S'0x3F'
p924
ssS'build'
p925
(dp926
S'core'
p927
S'arduino'
p928
sS'mcu'
p929
S'atmega168'
p930
sS'f_cpu'
p931
S'16000000L'
p932
sS'variant'
p933
S'standard'
p934
ssS'name'
p935
S'Arduino Pro or Pro Mini (5V, 16 MHz) w/ ATmega168'
p936
sS'upload'
p937
(dp938
S'protocol'
p939
S'arduino'
p940
sS'maximum_size'
p941
S'14336'
p942
sS'speed'
p943
S'19200'
p944
ssaa(lp945
S'pro328'
p946
a(dp947
g79
S'/Applications/Arduino.app/Contents/Resources/Java/hardware/arduino'
p948
sS'bootloader'
p949
(dp950
S'extended_fuses'
p951
S'0x05'
p952
sS'high_fuses'
p953
S'0xDA'
p954
sS'low_fuses'
p955
S'0xFF'
p956
sS'lock_bits'
p957
S'0x0F'
p958
sS'file'
p959
S'ATmegaBOOT_168_atmega328_pro_8MHz.hex'
p960
sS'path'
p961
S'atmega'
p962
sS'unlock_bits'
p963
S'0x3F'
p964
ssS'build'
p965
(dp966
S'core'
p967
S'arduino'
p968
sS'mcu'
p969
S'atmega328p'
p970
sS'f_cpu'
p971
S'8000000L'
p972
sS'variant'
p973
S'standard'
p974
ssS'name'
p975
S'Arduino Pro or Pro Mini (3.3V, 8 MHz) w/ ATmega328'
p976
sS'upload'
p977
(dp978
S'protocol'
p979
S'arduino'
p980
sS'maximum_size'
p981
S'30720'
p982
sS'speed'
p983
S'57600'
p984
ssaa(lp985
S'pro'
p986
a(dp987
g79
S'/Applications/Arduino.app/Contents/Resources/Java/hardware/arduino'
p988
sS'bootloader'
p989
(dp990
S'extended_fuses'
p991
S'0x00'
p992
sS'high_fuses'
p993
S'0xdd'
p994
sS'low_fuses'
p995
S'0xc6'
p996
sS'lock_bits'
p997
S'0x0F'
p998
sS'file'
p999
S'ATmegaBOOT_168_pro_8MHz.hex'
p1000
sS'path'
p1001
S'atmega'
p1002
sS'unlock_bits'
p1003
S'0x3F'
p1004
ssS'build'
p1005
(dp1006
S'core'
p1007
S'arduino'
p1008
sS'mcu'
p1009
S'atmega168'
p1010
sS'f_cpu'
p1011
S'8000000L'
p1012
sS'variant'
p1013
S'standard'
p1014
ssS'name'
p1015
S'Arduino Pro or Pro Mini (3.3V, 8 MHz) w/ ATmega168'
p1016
sS'upload'
p1017
(dp1018
S'protocol'
p1019
S'arduino'
p1020
sS'maximum_size'
p1021
S'14336'
p1022
sS'speed'
p1023
S'19200'
p1024
ssaa(lp1025
S'atmega168'
p1026
a(dp1027
g79
S'/Applications/Arduino.app/Contents/Resources/Java/hardware/arduino'
p1028
sS'bootloader'
p1029
(dp1030
S'extended_fuses'
p1031
S'0x00'
p1032
sS'high_fuses'
p1033
S'0xdd'
p1034
sS'low_fuses'
p1035
S'0xff'
p1036
sS'lock_bits'
p1037
S'0x0F'
p1038
sS'file'
p1039
S'ATmegaBOOT_168_ng.hex'
p1040
sS'path'
p1041
S'atmega'
p1042
sS'unlock_bits'
p1043
S'0x3F'
p1044
ssS'build'
p1045
(dp1046
S'core'
p1047
S'arduino'
p1048
sS'mcu'
p1049
S'atmega168'
p1050
sS'f_cpu'
p1051
S'16000000L'
p1052
sS'variant'
p1053
S'standard'
p1054
ssS'name'
p1055
S'Arduino NG or older w/ ATmega168'
p1056
sS'upload'
p1057
(dp1058
S'protocol'
p1059
S'arduino'
p1060
sS'maximum_size'
p1061
S'14336'
p1062
sS'speed'
p1063
S'19200'
p1064
ssaa(lp1065
S'atmega8'
p1066
a(dp1067
g79
S'/Applications/Arduino.app/Contents/Resources/Java/hardware/arduino'
p1068
sS'bootloader'
p1069
(dp1070
S'high_fuses'
p1071
S'0xca'
p1072
sS'low_fuses'
p1073
S'0xdf'
p1074
sS'lock_bits'
p1075
S'0x0F'
p1076
sS'file'
p1077
S'ATmegaBOOT-prod-firmware-2009-11-07.hex'
p1078
sS'path'
p1079
S'atmega8'
p1080
sS'unlock_bits'
p1081
S'0x3F'
p1082
ssS'build'
p1083
(dp1084
S'core'
p1085
S'arduino'
p1086
sS'mcu'
p1087
S'atmega8'
p1088
sS'f_cpu'
p1089
S'16000000L'
p1090
sS'variant'
p1091
S'standard'
p1092
ssS'name'
p1093
S'Arduino NG or older w/ ATmega8'
p1094
sS'upload'
p1095
(dp1096
S'protocol'
p1097
S'arduino'
p1098
sS'maximum_size'
p1099
S'7168'
p1100
sS'speed'
p1101
S'19200'
p1102
ssaa(lp1103
S'robotControl'
p1104
a(dp1105
g79
S'/Applications/Arduino.app/Contents/Resources/Java/hardware/arduino'
p1106
sS'bootloader'
p1107
(dp1108
S'extended_fuses'
p1109
S'0xcb'
p1110
sS'high_fuses'
p1111
S'0xd8'
p1112
sS'low_fuses'
p1113
S'0xff'
p1114
sS'lock_bits'
p1115
S'0x2F'
p1116
sS'file'
p1117
S'Caterina-Robot-Control.hex'
p1118
sS'path'
p1119
S'caterina-Arduino_Robot'
p1120
sS'unlock_bits'
p1121
S'0x3F'
p1122
ssS'build'
p1123
(dp1124
S'core'
p1125
S'robot'
p1126
sS'f_cpu'
p1127
S'16000000L'
p1128
sS'vid'
p1129
S'0x2341'
p1130
sS'pid'
p1131
S'0x8038'
p1132
sS'variant'
p1133
S'robot_control'
p1134
sS'mcu'
p1135
S'atmega32u4'
p1136
ssS'name'
p1137
S'Arduino Robot Control'
p1138
sS'upload'
p1139
(dp1140
S'protocol'
p1141
S'avr109'
p1142
sS'maximum_size'
p1143
S'28672'
p1144
sS'speed'
p1145
S'57600'
p1146
sS'disable_flushing'
p1147
S'true'
p1148
ssaa(lp1149
S'robotMotor'
p1150
a(dp1151
g79
S'/Applications/Arduino.app/Contents/Resources/Java/hardware/arduino'
p1152
sS'bootloader'
p1153
(dp1154
S'extended_fuses'
p1155
S'0xcb'
p1156
sS'high_fuses'
p1157
S'0xd8'
p1158
sS'low_fuses'
p1159
S'0xff'
p1160
sS'lock_bits'
p1161
S'0x2F'
p1162
sS'file'
p1163
S'Caterina-Robot-Motor.hex'
p1164
sS'path'
p1165
S'caterina-Arduino_Robot'
p1166
sS'unlock_bits'
p1167
S'0x3F'
p1168
ssS'build'
p1169
(dp1170
S'core'
p1171
S'robot'
p1172
sS'f_cpu'
p1173
S'16000000L'
p1174
sS'vid'
p1175
S'0x2341'
p1176
sS'pid'
p1177
S'0x8039'
p1178
sS'variant'
p1179
S'robot_motor'
p1180
sS'mcu'
p1181
S'atmega32u4'
p1182
ssS'name'
p1183
S'Arduino Robot Motor'
p1184
sS'upload'
p1185
(dp1186
S'protocol'
p1187
S'avr109'
p1188
sS'maximum_size'
p1189
S'28672'
p1190
sS'speed'
p1191
S'57600'
p1192
sS'disable_flushing'
p1193
S'true'
p1194
ssaatp1195
Rp1196
(dp1197
S'default'
p1198
S'uno'
p1199
sbtp1200
a(S'used_libs'
p1201
(lp1202
S'lib/OneWire'
p1203
aS'lib/RTClib'
p1204
aS'lib/EEPROMEx'
p1205
aS'lib/SD'
p1206
aS'lib/DHT'
p1207
aS'lib/Wire'
p1208
aS'lib/SPI'
p1209
aS'/Applications/Arduino.app/Contents/Resources/Java/hardware/arduino/cores/arduino'
p1210
atp1211
a(S'make'
p1212
S'/Applications/Arduino.app/Contents/Resources/Java/hardware/tools/avr/bin/make'
p1213
tp1214
a(S'build_dir'
p1215
S'.build/mega2560'
p1216
tp1217
a(S'cc'
p1218
S'/Applications/Arduino.app/Contents/Resources/Java/hardware/tools/avr/bin/avr-gcc'
p1219
tp1220
a(S'cflags'
p1221
g2
(g3
g4
(lp1222
tp1223
Rp1224
tp1225
a(S'cxxflags'
p1226
g2
(g3
g4
(lp1227
S'-fno-exceptions'
p1228
atp1229
Rp1230
tp1231
a(S'arduino_variants_dir'
p1232
S'/Applications/Arduino.app/Contents/Resources/Java/hardware/arduino/variants'
p1233
tp1234
a(S'serial'
p1235
S'/usr/local/bin/picocom'
p1236
tp1237
a(S'stty'
p1238
S'/bin/stty'
p1239
tp1240
a(S'version.txt'
p1241
S'/Applications/Arduino.app/Contents/Resources/Java/lib/version.txt'
p1242
tp1243
a(S'arduino_core_dir'
p1244
g1210
tp1245
a(S'boards.txt'
p1246
(lp1247
S'/Applications/Arduino.app/Contents/Resources/Java/hardware/arduino/boards.txt'
p1248
atp1249
a(S'avrdude.conf'
p1250
S'/Applications/Arduino.app/Contents/Resources/Java/hardware/tools/avr/etc/avrdude.conf'
p1251
tp1252
a(S'deps'
p1253
g2
(g3
g4
(lp1254
S'.build/mega2560/src/dependencies.d'
p1255
aS'.build/mega2560/arduino/dependencies.d'
p1256
aS'.build/mega2560/OneWire/dependencies.d'
p1257
aS'.build/mega2560/Wire/dependencies.d'
p1258
aS'.build/mega2560/RTClib/dependencies.d'
p1259
aS'.build/mega2560/EEPROMEx/dependencies.d'
p1260
aS'.build/mega2560/SPI/dependencies.d'
p1261
aS'.build/mega2560/SD/dependencies.d'
p1262
aS'.build/mega2560/DHT/dependencies.d'
p1263
atp1264
Rp1265
tp1266
a.