(lp0
(S'cppflags'
p1
ccopy_reg
_reconstructor
p2
(cino.utils
SpaceList
p3
c__builtin__
list
p4
(lp5
S'-mmcu=atmega328p'
p6
aS'-DF_CPU=16000000L'
p7
aS'-DARDUINO=105'
p8
aS'-I/Applications/Arduino.app/Contents/Resources/Java/hardware/arduino/cores/arduino'
p9
aS'-ffunction-sections'
p10
aS'-fdata-sections'
p11
aS'-g'
p12
aS'-Os'
p13
aS'-w'
p14
aS'-I/Applications/Arduino.app/Contents/Resources/Java/hardware/arduino/variants/standard'
p15
aS'-Ilib/DallasTemperature'
p16
aS'-Ilib/OneWire'
p17
aS'-I/Applications/Arduino.app/Contents/Resources/Java/hardware/arduino/cores/arduino'
p18
aS'-I/Applications/Arduino.app/Contents/Resources/Java/hardware/arduino/cores/arduino/avr-libc'
p19
atp20
Rp21
tp22
a(S'version.txt'
p23
S'/Applications/Arduino.app/Contents/Resources/Java/lib/version.txt'
p24
tp25
a(S'used_libs'
p26
(lp27
S'lib/DallasTemperature'
p28
aS'lib/OneWire'
p29
aS'/Applications/Arduino.app/Contents/Resources/Java/hardware/arduino/cores/arduino'
p30
atp31
a(S'cc'
p32
S'/Applications/Arduino.app/Contents/Resources/Java/hardware/tools/avr/bin/avr-gcc'
p33
tp34
a(S'make'
p35
S'/Applications/Arduino.app/Contents/Resources/Java/hardware/tools/avr/bin/make'
p36
tp37
a(S'build_dir'
p38
S'.build/uno'
p39
tp40
a(S'arduino_core_dir'
p41
g30
tp42
a(S'boards.txt'
p43
S'/Applications/Arduino.app/Contents/Resources/Java/hardware/arduino/boards.txt'
p44
tp45
a(S'cxxflags'
p46
g2
(g3
g4
(lp47
S'-fno-exceptions'
p48
atp49
Rp50
tp51
a(S'arduino_variants_dir'
p52
S'/Applications/Arduino.app/Contents/Resources/Java/hardware/arduino/variants'
p53
tp54
a(S'deps'
p55
g2
(g3
g4
(lp56
S'.build/uno/src/dependencies.d'
p57
aS'.build/uno/arduino/dependencies.d'
p58
aS'.build/uno/DallasTemperature/dependencies.d'
p59
aS'.build/uno/OneWire/dependencies.d'
p60
atp61
Rp62
tp63
a(S'ar'
p64
S'/Applications/Arduino.app/Contents/Resources/Java/hardware/tools/avr/bin/avr-ar'
p65
tp66
a(S'names'
p67
(dp68
S'cpp'
p69
S'%s.cpp'
p70
sS'obj'
p71
S'%s.o'
p72
sg55
S'%s.d'
p73
sS'lib'
p74
S'lib%s.a'
p75
stp76
a(S'cflags'
p77
g2
(g3
g4
(lp78
tp79
Rp80
tp81
a(S'ldflags'
p82
g2
(g3
g4
(lp83
g6
aS'-Wl,-Os'
p84
aS'-Wl,--gc-sections'
p85
atp86
Rp87
tp88
a(S'arduino_libraries_dir'
p89
S'/Applications/Arduino.app/Contents/Resources/Java/libraries'
p90
tp91
a(S'arduino_lib_version'
p92
g2
(cino.environment
Version
p93
c__builtin__
tuple
p94
(I1
I0
I5
tp95
tp96
Rp97
tp98
a(S'objcopy'
p99
S'/Applications/Arduino.app/Contents/Resources/Java/hardware/tools/avr/bin/avr-objcopy'
p100
tp101
a(S'board_models'
p102
cino.environment
BoardModels
p103
((lp104
(lp105
S'uno'
p106
a(dp107
S'build'
p108
(dp109
S'core'
p110
S'arduino'
p111
sS'mcu'
p112
S'atmega328p'
p113
sS'f_cpu'
p114
S'16000000L'
p115
sS'variant'
p116
S'standard'
p117
ssS'bootloader'
p118
(dp119
S'extended_fuses'
p120
S'0x05'
p121
sS'high_fuses'
p122
S'0xde'
p123
sS'low_fuses'
p124
S'0xff'
p125
sS'lock_bits'
p126
S'0x0F'
p127
sS'file'
p128
S'optiboot_atmega328.hex'
p129
sS'path'
p130
S'optiboot'
p131
sS'unlock_bits'
p132
S'0x3F'
p133
ssS'name'
p134
S'Arduino Uno'
p135
sS'upload'
p136
(dp137
S'speed'
p138
S'115200'
p139
sS'maximum_size'
p140
S'32256'
p141
sS'protocol'
p142
S'arduino'
p143
ssaa(lp144
S'atmega328'
p145
a(dp146
S'build'
p147
(dp148
S'core'
p149
S'arduino'
p150
sS'mcu'
p151
S'atmega328p'
p152
sS'f_cpu'
p153
S'16000000L'
p154
sS'variant'
p155
S'standard'
p156
ssS'bootloader'
p157
(dp158
S'extended_fuses'
p159
S'0x05'
p160
sS'high_fuses'
p161
S'0xDA'
p162
sS'low_fuses'
p163
S'0xFF'
p164
sS'lock_bits'
p165
S'0x0F'
p166
sS'file'
p167
S'ATmegaBOOT_168_atmega328.hex'
p168
sS'path'
p169
S'atmega'
p170
sS'unlock_bits'
p171
S'0x3F'
p172
ssS'name'
p173
S'Arduino Duemilanove w/ ATmega328'
p174
sS'upload'
p175
(dp176
S'speed'
p177
S'57600'
p178
sS'maximum_size'
p179
S'30720'
p180
sS'protocol'
p181
S'arduino'
p182
ssaa(lp183
S'diecimila'
p184
a(dp185
S'build'
p186
(dp187
S'core'
p188
S'arduino'
p189
sS'mcu'
p190
S'atmega168'
p191
sS'f_cpu'
p192
S'16000000L'
p193
sS'variant'
p194
S'standard'
p195
ssS'bootloader'
p196
(dp197
S'extended_fuses'
p198
S'0x00'
p199
sS'high_fuses'
p200
S'0xdd'
p201
sS'low_fuses'
p202
S'0xff'
p203
sS'lock_bits'
p204
S'0x0F'
p205
sS'file'
p206
S'ATmegaBOOT_168_diecimila.hex'
p207
sS'path'
p208
S'atmega'
p209
sS'unlock_bits'
p210
S'0x3F'
p211
ssS'name'
p212
S'Arduino Diecimila or Duemilanove w/ ATmega168'
p213
sS'upload'
p214
(dp215
S'speed'
p216
S'19200'
p217
sS'maximum_size'
p218
S'14336'
p219
sS'protocol'
p220
S'arduino'
p221
ssaa(lp222
S'nano328'
p223
a(dp224
S'build'
p225
(dp226
S'core'
p227
S'arduino'
p228
sS'mcu'
p229
S'atmega328p'
p230
sS'f_cpu'
p231
S'16000000L'
p232
sS'variant'
p233
S'eightanaloginputs'
p234
ssS'bootloader'
p235
(dp236
S'extended_fuses'
p237
S'0x05'
p238
sS'high_fuses'
p239
S'0xDA'
p240
sS'low_fuses'
p241
S'0xFF'
p242
sS'lock_bits'
p243
S'0x0F'
p244
sS'file'
p245
S'ATmegaBOOT_168_atmega328.hex'
p246
sS'path'
p247
S'atmega'
p248
sS'unlock_bits'
p249
S'0x3F'
p250
ssS'name'
p251
S'Arduino Nano w/ ATmega328'
p252
sS'upload'
p253
(dp254
S'speed'
p255
S'57600'
p256
sS'maximum_size'
p257
S'30720'
p258
sS'protocol'
p259
S'arduino'
p260
ssaa(lp261
S'nano'
p262
a(dp263
S'build'
p264
(dp265
S'core'
p266
S'arduino'
p267
sS'mcu'
p268
S'atmega168'
p269
sS'f_cpu'
p270
S'16000000L'
p271
sS'variant'
p272
S'eightanaloginputs'
p273
ssS'bootloader'
p274
(dp275
S'extended_fuses'
p276
S'0x00'
p277
sS'high_fuses'
p278
S'0xdd'
p279
sS'low_fuses'
p280
S'0xff'
p281
sS'lock_bits'
p282
S'0x0F'
p283
sS'file'
p284
S'ATmegaBOOT_168_diecimila.hex'
p285
sS'path'
p286
S'atmega'
p287
sS'unlock_bits'
p288
S'0x3F'
p289
ssS'name'
p290
S'Arduino Nano w/ ATmega168'
p291
sS'upload'
p292
(dp293
S'speed'
p294
S'19200'
p295
sS'maximum_size'
p296
S'14336'
p297
sS'protocol'
p298
S'arduino'
p299
ssaa(lp300
S'mega2560'
p301
a(dp302
S'build'
p303
(dp304
S'core'
p305
S'arduino'
p306
sS'mcu'
p307
S'atmega2560'
p308
sS'f_cpu'
p309
S'16000000L'
p310
sS'variant'
p311
S'mega'
p312
ssS'bootloader'
p313
(dp314
S'extended_fuses'
p315
S'0xFD'
p316
sS'high_fuses'
p317
S'0xD8'
p318
sS'low_fuses'
p319
S'0xFF'
p320
sS'lock_bits'
p321
S'0x0F'
p322
sS'file'
p323
S'stk500boot_v2_mega2560.hex'
p324
sS'path'
p325
S'stk500v2'
p326
sS'unlock_bits'
p327
S'0x3F'
p328
ssS'name'
p329
S'Arduino Mega 2560 or Mega ADK'
p330
sS'upload'
p331
(dp332
S'speed'
p333
S'115200'
p334
sS'maximum_size'
p335
S'258048'
p336
sS'protocol'
p337
S'wiring'
p338
ssaa(lp339
S'mega'
p340
a(dp341
S'build'
p342
(dp343
S'core'
p344
S'arduino'
p345
sS'mcu'
p346
S'atmega1280'
p347
sS'f_cpu'
p348
S'16000000L'
p349
sS'variant'
p350
S'mega'
p351
ssS'bootloader'
p352
(dp353
S'extended_fuses'
p354
S'0xF5'
p355
sS'high_fuses'
p356
S'0xDA'
p357
sS'low_fuses'
p358
S'0xFF'
p359
sS'lock_bits'
p360
S'0x0F'
p361
sS'file'
p362
S'ATmegaBOOT_168_atmega1280.hex'
p363
sS'path'
p364
S'atmega'
p365
sS'unlock_bits'
p366
S'0x3F'
p367
ssS'name'
p368
S'Arduino Mega (ATmega1280)'
p369
sS'upload'
p370
(dp371
S'speed'
p372
S'57600'
p373
sS'maximum_size'
p374
S'126976'
p375
sS'protocol'
p376
S'arduino'
p377
ssaa(lp378
S'leonardo'
p379
a(dp380
S'build'
p381
(dp382
S'core'
p383
S'arduino'
p384
sS'f_cpu'
p385
S'16000000L'
p386
sS'vid'
p387
S'0x2341'
p388
sS'pid'
p389
S'0x8036'
p390
sS'variant'
p391
S'leonardo'
p392
sS'mcu'
p393
S'atmega32u4'
p394
ssS'bootloader'
p395
(dp396
S'extended_fuses'
p397
S'0xcb'
p398
sS'high_fuses'
p399
S'0xd8'
p400
sS'low_fuses'
p401
S'0xff'
p402
sS'lock_bits'
p403
S'0x2F'
p404
sS'file'
p405
S'Caterina-Leonardo.hex'
p406
sS'path'
p407
S'caterina'
p408
sS'unlock_bits'
p409
S'0x3F'
p410
ssS'name'
p411
S'Arduino Leonardo'
p412
sS'upload'
p413
(dp414
S'speed'
p415
S'57600'
p416
sS'maximum_size'
p417
S'28672'
p418
sS'protocol'
p419
S'avr109'
p420
sS'disable_flushing'
p421
S'true'
p422
ssaa(lp423
S'esplora'
p424
a(dp425
S'build'
p426
(dp427
S'core'
p428
S'arduino'
p429
sS'f_cpu'
p430
S'16000000L'
p431
sS'vid'
p432
S'0x2341'
p433
sS'pid'
p434
S'0x803C'
p435
sS'variant'
p436
S'leonardo'
p437
sS'mcu'
p438
S'atmega32u4'
p439
ssS'bootloader'
p440
(dp441
S'extended_fuses'
p442
S'0xcb'
p443
sS'high_fuses'
p444
S'0xd8'
p445
sS'low_fuses'
p446
S'0xff'
p447
sS'lock_bits'
p448
S'0x2F'
p449
sS'file'
p450
S'Caterina-Esplora.hex'
p451
sS'path'
p452
S'caterina'
p453
sS'unlock_bits'
p454
S'0x3F'
p455
ssS'name'
p456
S'Arduino Esplora'
p457
sS'upload'
p458
(dp459
S'speed'
p460
S'57600'
p461
sS'maximum_size'
p462
S'28672'
p463
sS'protocol'
p464
S'avr109'
p465
sS'disable_flushing'
p466
S'true'
p467
ssaa(lp468
S'micro'
p469
a(dp470
S'build'
p471
(dp472
S'core'
p473
S'arduino'
p474
sS'f_cpu'
p475
S'16000000L'
p476
sS'vid'
p477
S'0x2341'
p478
sS'pid'
p479
S'0x8037'
p480
sS'variant'
p481
S'micro'
p482
sS'mcu'
p483
S'atmega32u4'
p484
ssS'bootloader'
p485
(dp486
S'extended_fuses'
p487
S'0xcb'
p488
sS'high_fuses'
p489
S'0xd8'
p490
sS'low_fuses'
p491
S'0xff'
p492
sS'lock_bits'
p493
S'0x2F'
p494
sS'file'
p495
S'Caterina-Micro.hex'
p496
sS'path'
p497
S'caterina'
p498
sS'unlock_bits'
p499
S'0x3F'
p500
ssS'name'
p501
S'Arduino Micro'
p502
sS'upload'
p503
(dp504
S'speed'
p505
S'57600'
p506
sS'maximum_size'
p507
S'28672'
p508
sS'protocol'
p509
S'avr109'
p510
sS'disable_flushing'
p511
S'true'
p512
ssaa(lp513
S'mini328'
p514
a(dp515
S'build'
p516
(dp517
S'core'
p518
S'arduino'
p519
sS'mcu'
p520
S'atmega328p'
p521
sS'f_cpu'
p522
S'16000000L'
p523
sS'variant'
p524
S'eightanaloginputs'
p525
ssS'bootloader'
p526
(dp527
S'extended_fuses'
p528
S'0x05'
p529
sS'high_fuses'
p530
S'0xd8'
p531
sS'low_fuses'
p532
S'0xff'
p533
sS'lock_bits'
p534
S'0x0F'
p535
sS'file'
p536
S'optiboot_atmega328-Mini.hex'
p537
sS'path'
p538
S'optiboot'
p539
sS'unlock_bits'
p540
S'0x3F'
p541
ssS'name'
p542
S'Arduino Mini w/ ATmega328'
p543
sS'upload'
p544
(dp545
S'speed'
p546
S'115200'
p547
sS'maximum_size'
p548
S'28672'
p549
sS'protocol'
p550
S'arduino'
p551
ssaa(lp552
S'mini'
p553
a(dp554
S'build'
p555
(dp556
S'core'
p557
S'arduino'
p558
sS'mcu'
p559
S'atmega168'
p560
sS'f_cpu'
p561
S'16000000L'
p562
sS'variant'
p563
S'eightanaloginputs'
p564
ssS'bootloader'
p565
(dp566
S'extended_fuses'
p567
S'0x00'
p568
sS'high_fuses'
p569
S'0xdd'
p570
sS'low_fuses'
p571
S'0xff'
p572
sS'lock_bits'
p573
S'0x0F'
p574
sS'file'
p575
S'ATmegaBOOT_168_ng.hex'
p576
sS'path'
p577
S'atmega'
p578
sS'unlock_bits'
p579
S'0x3F'
p580
ssS'name'
p581
S'Arduino Mini w/ ATmega168'
p582
sS'upload'
p583
(dp584
S'speed'
p585
S'19200'
p586
sS'maximum_size'
p587
S'14336'
p588
sS'protocol'
p589
S'arduino'
p590
ssaa(lp591
S'ethernet'
p592
a(dp593
S'build'
p594
(dp595
S'f_cpu'
p596
S'16000000L'
p597
sS'mcu'
p598
S'atmega328p'
p599
sS'variant'
p600
S'standard'
p601
sS'core'
p602
S'arduino'
p603
ssS'bootloader'
p604
(dp605
S'extended_fuses'
p606
S'0x05'
p607
sS'high_fuses'
p608
S'0xde'
p609
sS'low_fuses'
p610
S'0xff'
p611
sS'lock_bits'
p612
S'0x0F'
p613
sS'file'
p614
S'optiboot_atmega328.hex'
p615
sS'path'
p616
S'optiboot'
p617
sS'unlock_bits'
p618
S'0x3F'
p619
ssS'name'
p620
S'Arduino Ethernet'
p621
sS'upload'
p622
(dp623
S'speed'
p624
S'115200'
p625
sS'maximum_size'
p626
S'32256'
p627
sS'protocol'
p628
S'arduino'
p629
ssaa(lp630
S'fio'
p631
a(dp632
S'build'
p633
(dp634
S'core'
p635
S'arduino'
p636
sS'mcu'
p637
S'atmega328p'
p638
sS'f_cpu'
p639
S'8000000L'
p640
sS'variant'
p641
S'eightanaloginputs'
p642
ssS'bootloader'
p643
(dp644
S'extended_fuses'
p645
S'0x05'
p646
sS'high_fuses'
p647
S'0xDA'
p648
sS'low_fuses'
p649
S'0xFF'
p650
sS'lock_bits'
p651
S'0x0F'
p652
sS'file'
p653
S'ATmegaBOOT_168_atmega328_pro_8MHz.hex'
p654
sS'path'
p655
S'arduino:atmega'
p656
sS'unlock_bits'
p657
S'0x3F'
p658
ssS'name'
p659
S'Arduino Fio'
p660
sS'upload'
p661
(dp662
S'speed'
p663
S'57600'
p664
sS'maximum_size'
p665
S'30720'
p666
sS'protocol'
p667
S'arduino'
p668
ssaa(lp669
S'bt328'
p670
a(dp671
S'build'
p672
(dp673
S'core'
p674
S'arduino'
p675
sS'mcu'
p676
S'atmega328p'
p677
sS'f_cpu'
p678
S'16000000L'
p679
sS'variant'
p680
S'eightanaloginputs'
p681
ssS'bootloader'
p682
(dp683
S'extended_fuses'
p684
S'0x05'
p685
sS'high_fuses'
p686
S'0xd8'
p687
sS'low_fuses'
p688
S'0xff'
p689
sS'lock_bits'
p690
S'0x0F'
p691
sS'file'
p692
S'ATmegaBOOT_168_atmega328_bt.hex'
p693
sS'path'
p694
S'bt'
p695
sS'unlock_bits'
p696
S'0x3F'
p697
ssS'name'
p698
S'Arduino BT w/ ATmega328'
p699
sS'upload'
p700
(dp701
S'speed'
p702
S'19200'
p703
sS'maximum_size'
p704
S'28672'
p705
sS'protocol'
p706
S'arduino'
p707
sS'disable_flushing'
p708
S'true'
p709
ssaa(lp710
S'bt'
p711
a(dp712
S'build'
p713
(dp714
S'core'
p715
S'arduino'
p716
sS'mcu'
p717
S'atmega168'
p718
sS'f_cpu'
p719
S'16000000L'
p720
sS'variant'
p721
S'eightanaloginputs'
p722
ssS'bootloader'
p723
(dp724
S'extended_fuses'
p725
S'0x00'
p726
sS'high_fuses'
p727
S'0xdd'
p728
sS'low_fuses'
p729
S'0xff'
p730
sS'lock_bits'
p731
S'0x0F'
p732
sS'file'
p733
S'ATmegaBOOT_168.hex'
p734
sS'path'
p735
S'bt'
p736
sS'unlock_bits'
p737
S'0x3F'
p738
ssS'name'
p739
S'Arduino BT w/ ATmega168'
p740
sS'upload'
p741
(dp742
S'speed'
p743
S'19200'
p744
sS'maximum_size'
p745
S'14336'
p746
sS'protocol'
p747
S'arduino'
p748
sS'disable_flushing'
p749
S'true'
p750
ssaa(lp751
S'LilyPadUSB'
p752
a(dp753
S'build'
p754
(dp755
S'core'
p756
S'arduino'
p757
sS'f_cpu'
p758
S'8000000L'
p759
sS'vid'
p760
S'0x1B4F'
p761
sS'pid'
p762
S'0x9208'
p763
sS'variant'
p764
S'leonardo'
p765
sS'mcu'
p766
S'atmega32u4'
p767
ssS'bootloader'
p768
(dp769
S'extended_fuses'
p770
S'0xce'
p771
sS'high_fuses'
p772
S'0xd8'
p773
sS'low_fuses'
p774
S'0xff'
p775
sS'lock_bits'
p776
S'0x2F'
p777
sS'file'
p778
S'Caterina-LilyPadUSB.hex'
p779
sS'path'
p780
S'caterina-LilyPadUSB'
p781
sS'unlock_bits'
p782
S'0x3F'
p783
ssS'name'
p784
S'LilyPad Arduino USB'
p785
sS'upload'
p786
(dp787
S'speed'
p788
S'57600'
p789
sS'maximum_size'
p790
S'28672'
p791
sS'protocol'
p792
S'avr109'
p793
sS'disable_flushing'
p794
S'true'
p795
ssaa(lp796
S'lilypad328'
p797
a(dp798
S'build'
p799
(dp800
S'core'
p801
S'arduino'
p802
sS'mcu'
p803
S'atmega328p'
p804
sS'f_cpu'
p805
S'8000000L'
p806
sS'variant'
p807
S'standard'
p808
ssS'bootloader'
p809
(dp810
S'extended_fuses'
p811
S'0x05'
p812
sS'high_fuses'
p813
S'0xDA'
p814
sS'low_fuses'
p815
S'0xFF'
p816
sS'lock_bits'
p817
S'0x0F'
p818
sS'file'
p819
S'ATmegaBOOT_168_atmega328_pro_8MHz.hex'
p820
sS'path'
p821
S'atmega'
p822
sS'unlock_bits'
p823
S'0x3F'
p824
ssS'name'
p825
S'LilyPad Arduino w/ ATmega328'
p826
sS'upload'
p827
(dp828
S'speed'
p829
S'57600'
p830
sS'maximum_size'
p831
S'30720'
p832
sS'protocol'
p833
S'arduino'
p834
ssaa(lp835
S'lilypad'
p836
a(dp837
S'build'
p838
(dp839
S'core'
p840
S'arduino'
p841
sS'mcu'
p842
S'atmega168'
p843
sS'f_cpu'
p844
S'8000000L'
p845
sS'variant'
p846
S'standard'
p847
ssS'bootloader'
p848
(dp849
S'extended_fuses'
p850
S'0x00'
p851
sS'high_fuses'
p852
S'0xdd'
p853
sS'low_fuses'
p854
S'0xe2'
p855
sS'lock_bits'
p856
S'0x0F'
p857
sS'file'
p858
S'LilyPadBOOT_168.hex'
p859
sS'path'
p860
S'lilypad'
p861
sS'unlock_bits'
p862
S'0x3F'
p863
ssS'name'
p864
S'LilyPad Arduino w/ ATmega168'
p865
sS'upload'
p866
(dp867
S'speed'
p868
S'19200'
p869
sS'maximum_size'
p870
S'14336'
p871
sS'protocol'
p872
S'arduino'
p873
ssaa(lp874
S'pro5v328'
p875
a(dp876
S'build'
p877
(dp878
S'core'
p879
S'arduino'
p880
sS'mcu'
p881
S'atmega328p'
p882
sS'f_cpu'
p883
S'16000000L'
p884
sS'variant'
p885
S'standard'
p886
ssS'bootloader'
p887
(dp888
S'extended_fuses'
p889
S'0x05'
p890
sS'high_fuses'
p891
S'0xDA'
p892
sS'low_fuses'
p893
S'0xFF'
p894
sS'lock_bits'
p895
S'0x0F'
p896
sS'file'
p897
S'ATmegaBOOT_168_atmega328.hex'
p898
sS'path'
p899
S'atmega'
p900
sS'unlock_bits'
p901
S'0x3F'
p902
ssS'name'
p903
S'Arduino Pro or Pro Mini (5V, 16 MHz) w/ ATmega328'
p904
sS'upload'
p905
(dp906
S'speed'
p907
S'57600'
p908
sS'maximum_size'
p909
S'30720'
p910
sS'protocol'
p911
S'arduino'
p912
ssaa(lp913
S'pro5v'
p914
a(dp915
S'build'
p916
(dp917
S'core'
p918
S'arduino'
p919
sS'mcu'
p920
S'atmega168'
p921
sS'f_cpu'
p922
S'16000000L'
p923
sS'variant'
p924
S'standard'
p925
ssS'bootloader'
p926
(dp927
S'extended_fuses'
p928
S'0x00'
p929
sS'high_fuses'
p930
S'0xdd'
p931
sS'low_fuses'
p932
S'0xff'
p933
sS'lock_bits'
p934
S'0x0F'
p935
sS'file'
p936
S'ATmegaBOOT_168_diecimila.hex'
p937
sS'path'
p938
S'atmega'
p939
sS'unlock_bits'
p940
S'0x3F'
p941
ssS'name'
p942
S'Arduino Pro or Pro Mini (5V, 16 MHz) w/ ATmega168'
p943
sS'upload'
p944
(dp945
S'speed'
p946
S'19200'
p947
sS'maximum_size'
p948
S'14336'
p949
sS'protocol'
p950
S'arduino'
p951
ssaa(lp952
S'pro328'
p953
a(dp954
S'build'
p955
(dp956
S'core'
p957
S'arduino'
p958
sS'mcu'
p959
S'atmega328p'
p960
sS'f_cpu'
p961
S'8000000L'
p962
sS'variant'
p963
S'standard'
p964
ssS'bootloader'
p965
(dp966
S'extended_fuses'
p967
S'0x05'
p968
sS'high_fuses'
p969
S'0xDA'
p970
sS'low_fuses'
p971
S'0xFF'
p972
sS'lock_bits'
p973
S'0x0F'
p974
sS'file'
p975
S'ATmegaBOOT_168_atmega328_pro_8MHz.hex'
p976
sS'path'
p977
S'atmega'
p978
sS'unlock_bits'
p979
S'0x3F'
p980
ssS'name'
p981
S'Arduino Pro or Pro Mini (3.3V, 8 MHz) w/ ATmega328'
p982
sS'upload'
p983
(dp984
S'speed'
p985
S'57600'
p986
sS'maximum_size'
p987
S'30720'
p988
sS'protocol'
p989
S'arduino'
p990
ssaa(lp991
S'pro'
p992
a(dp993
S'build'
p994
(dp995
S'core'
p996
S'arduino'
p997
sS'mcu'
p998
S'atmega168'
p999
sS'f_cpu'
p1000
S'8000000L'
p1001
sS'variant'
p1002
S'standard'
p1003
ssS'bootloader'
p1004
(dp1005
S'extended_fuses'
p1006
S'0x00'
p1007
sS'high_fuses'
p1008
S'0xdd'
p1009
sS'low_fuses'
p1010
S'0xc6'
p1011
sS'lock_bits'
p1012
S'0x0F'
p1013
sS'file'
p1014
S'ATmegaBOOT_168_pro_8MHz.hex'
p1015
sS'path'
p1016
S'atmega'
p1017
sS'unlock_bits'
p1018
S'0x3F'
p1019
ssS'name'
p1020
S'Arduino Pro or Pro Mini (3.3V, 8 MHz) w/ ATmega168'
p1021
sS'upload'
p1022
(dp1023
S'speed'
p1024
S'19200'
p1025
sS'maximum_size'
p1026
S'14336'
p1027
sS'protocol'
p1028
S'arduino'
p1029
ssaa(lp1030
S'atmega168'
p1031
a(dp1032
S'build'
p1033
(dp1034
S'core'
p1035
S'arduino'
p1036
sS'mcu'
p1037
S'atmega168'
p1038
sS'f_cpu'
p1039
S'16000000L'
p1040
sS'variant'
p1041
S'standard'
p1042
ssS'bootloader'
p1043
(dp1044
S'extended_fuses'
p1045
S'0x00'
p1046
sS'high_fuses'
p1047
S'0xdd'
p1048
sS'low_fuses'
p1049
S'0xff'
p1050
sS'lock_bits'
p1051
S'0x0F'
p1052
sS'file'
p1053
S'ATmegaBOOT_168_ng.hex'
p1054
sS'path'
p1055
S'atmega'
p1056
sS'unlock_bits'
p1057
S'0x3F'
p1058
ssS'name'
p1059
S'Arduino NG or older w/ ATmega168'
p1060
sS'upload'
p1061
(dp1062
S'speed'
p1063
S'19200'
p1064
sS'maximum_size'
p1065
S'14336'
p1066
sS'protocol'
p1067
S'arduino'
p1068
ssaa(lp1069
S'atmega8'
p1070
a(dp1071
S'build'
p1072
(dp1073
S'core'
p1074
S'arduino'
p1075
sS'mcu'
p1076
S'atmega8'
p1077
sS'f_cpu'
p1078
S'16000000L'
p1079
sS'variant'
p1080
S'standard'
p1081
ssS'bootloader'
p1082
(dp1083
S'high_fuses'
p1084
S'0xca'
p1085
sS'low_fuses'
p1086
S'0xdf'
p1087
sS'lock_bits'
p1088
S'0x0F'
p1089
sS'file'
p1090
S'ATmegaBOOT-prod-firmware-2009-11-07.hex'
p1091
sS'path'
p1092
S'atmega8'
p1093
sS'unlock_bits'
p1094
S'0x3F'
p1095
ssS'name'
p1096
S'Arduino NG or older w/ ATmega8'
p1097
sS'upload'
p1098
(dp1099
S'speed'
p1100
S'19200'
p1101
sS'maximum_size'
p1102
S'7168'
p1103
sS'protocol'
p1104
S'arduino'
p1105
ssaa(lp1106
S'robotControl'
p1107
a(dp1108
S'build'
p1109
(dp1110
S'core'
p1111
S'robot'
p1112
sS'f_cpu'
p1113
S'16000000L'
p1114
sS'vid'
p1115
S'0x2341'
p1116
sS'pid'
p1117
S'0x8038'
p1118
sS'variant'
p1119
S'robot_control'
p1120
sS'mcu'
p1121
S'atmega32u4'
p1122
ssS'bootloader'
p1123
(dp1124
S'extended_fuses'
p1125
S'0xcb'
p1126
sS'high_fuses'
p1127
S'0xd8'
p1128
sS'low_fuses'
p1129
S'0xff'
p1130
sS'lock_bits'
p1131
S'0x2F'
p1132
sS'file'
p1133
S'Caterina-Robot-Control.hex'
p1134
sS'path'
p1135
S'caterina-Arduino_Robot'
p1136
sS'unlock_bits'
p1137
S'0x3F'
p1138
ssS'name'
p1139
S'Arduino Robot Control'
p1140
sS'upload'
p1141
(dp1142
S'speed'
p1143
S'57600'
p1144
sS'maximum_size'
p1145
S'28672'
p1146
sS'protocol'
p1147
S'avr109'
p1148
sS'disable_flushing'
p1149
S'true'
p1150
ssaa(lp1151
S'robotMotor'
p1152
a(dp1153
S'build'
p1154
(dp1155
S'core'
p1156
S'robot'
p1157
sS'f_cpu'
p1158
S'16000000L'
p1159
sS'vid'
p1160
S'0x2341'
p1161
sS'pid'
p1162
S'0x8039'
p1163
sS'variant'
p1164
S'robot_motor'
p1165
sS'mcu'
p1166
S'atmega32u4'
p1167
ssS'bootloader'
p1168
(dp1169
S'extended_fuses'
p1170
S'0xcb'
p1171
sS'high_fuses'
p1172
S'0xd8'
p1173
sS'low_fuses'
p1174
S'0xff'
p1175
sS'lock_bits'
p1176
S'0x2F'
p1177
sS'file'
p1178
S'Caterina-Robot-Motor.hex'
p1179
sS'path'
p1180
S'caterina-Arduino_Robot'
p1181
sS'unlock_bits'
p1182
S'0x3F'
p1183
ssS'name'
p1184
S'Arduino Robot Motor'
p1185
sS'upload'
p1186
(dp1187
S'speed'
p1188
S'57600'
p1189
sS'maximum_size'
p1190
S'28672'
p1191
sS'protocol'
p1192
S'avr109'
p1193
sS'disable_flushing'
p1194
S'true'
p1195
ssaatp1196
Rp1197
(dp1198
S'default'
p1199
S'uno'
p1200
sbtp1201
a(S'cxx'
p1202
S'/Applications/Arduino.app/Contents/Resources/Java/hardware/tools/avr/bin/avr-g++'
p1203
tp1204
a.