(lp0
(S'cppflags'
p1
ccopy_reg
_reconstructor
p2
(cino.utils
SpaceList
p3
c__builtin__
list
p4
(lp5
S'-mmcu=atmega328p'
p6
aS'-DF_CPU=16000000L'
p7
aS'-DARDUINO=105'
p8
aS'-I/Applications/Arduino.app/Contents/Resources/Java/hardware/arduino/cores/arduino'
p9
aS'-ffunction-sections'
p10
aS'-fdata-sections'
p11
aS'-g'
p12
aS'-Os'
p13
aS'-w'
p14
aS'-I/Applications/Arduino.app/Contents/Resources/Java/hardware/arduino/variants/standard'
p15
aS'-Ilib/RTClib'
p16
aS'-Ilib/Wire'
p17
aS'-Ilib/Wire/utility'
p18
aS'-I/Applications/Arduino.app/Contents/Resources/Java/hardware/arduino/cores/arduino'
p19
aS'-I/Applications/Arduino.app/Contents/Resources/Java/hardware/arduino/cores/arduino/avr-libc'
p20
atp21
Rp22
tp23
a(S'version.txt'
p24
S'/Applications/Arduino.app/Contents/Resources/Java/lib/version.txt'
p25
tp26
a(S'used_libs'
p27
(lp28
S'lib/RTClib'
p29
aS'lib/Wire'
p30
aS'/Applications/Arduino.app/Contents/Resources/Java/hardware/arduino/cores/arduino'
p31
atp32
a(S'cc'
p33
S'/Applications/Arduino.app/Contents/Resources/Java/hardware/tools/avr/bin/avr-gcc'
p34
tp35
a(S'make'
p36
S'/Applications/Arduino.app/Contents/Resources/Java/hardware/tools/avr/bin/make'
p37
tp38
a(S'build_dir'
p39
S'.build/uno'
p40
tp41
a(S'arduino_core_dir'
p42
g31
tp43
a(S'boards.txt'
p44
S'/Applications/Arduino.app/Contents/Resources/Java/hardware/arduino/boards.txt'
p45
tp46
a(S'cxxflags'
p47
g2
(g3
g4
(lp48
S'-fno-exceptions'
p49
atp50
Rp51
tp52
a(S'arduino_variants_dir'
p53
S'/Applications/Arduino.app/Contents/Resources/Java/hardware/arduino/variants'
p54
tp55
a(S'deps'
p56
g2
(g3
g4
(lp57
S'.build/uno/src/dependencies.d'
p58
aS'.build/uno/arduino/dependencies.d'
p59
aS'.build/uno/RTClib/dependencies.d'
p60
aS'.build/uno/Wire/dependencies.d'
p61
atp62
Rp63
tp64
a(S'ar'
p65
S'/Applications/Arduino.app/Contents/Resources/Java/hardware/tools/avr/bin/avr-ar'
p66
tp67
a(S'names'
p68
(dp69
S'cpp'
p70
S'%s.cpp'
p71
sS'obj'
p72
S'%s.o'
p73
sg56
S'%s.d'
p74
sS'lib'
p75
S'lib%s.a'
p76
stp77
a(S'cflags'
p78
g2
(g3
g4
(lp79
tp80
Rp81
tp82
a(S'ldflags'
p83
g2
(g3
g4
(lp84
g6
aS'-Wl,-Os'
p85
aS'-Wl,--gc-sections'
p86
atp87
Rp88
tp89
a(S'arduino_libraries_dir'
p90
S'/Applications/Arduino.app/Contents/Resources/Java/libraries'
p91
tp92
a(S'arduino_lib_version'
p93
g2
(cino.environment
Version
p94
c__builtin__
tuple
p95
(I1
I0
I5
tp96
tp97
Rp98
tp99
a(S'objcopy'
p100
S'/Applications/Arduino.app/Contents/Resources/Java/hardware/tools/avr/bin/avr-objcopy'
p101
tp102
a(S'board_models'
p103
cino.environment
BoardModels
p104
((lp105
(lp106
S'uno'
p107
a(dp108
S'build'
p109
(dp110
S'core'
p111
S'arduino'
p112
sS'mcu'
p113
S'atmega328p'
p114
sS'f_cpu'
p115
S'16000000L'
p116
sS'variant'
p117
S'standard'
p118
ssS'bootloader'
p119
(dp120
S'extended_fuses'
p121
S'0x05'
p122
sS'high_fuses'
p123
S'0xde'
p124
sS'low_fuses'
p125
S'0xff'
p126
sS'lock_bits'
p127
S'0x0F'
p128
sS'file'
p129
S'optiboot_atmega328.hex'
p130
sS'path'
p131
S'optiboot'
p132
sS'unlock_bits'
p133
S'0x3F'
p134
ssS'name'
p135
S'Arduino Uno'
p136
sS'upload'
p137
(dp138
S'speed'
p139
S'115200'
p140
sS'maximum_size'
p141
S'32256'
p142
sS'protocol'
p143
S'arduino'
p144
ssaa(lp145
S'atmega328'
p146
a(dp147
S'build'
p148
(dp149
S'core'
p150
S'arduino'
p151
sS'mcu'
p152
S'atmega328p'
p153
sS'f_cpu'
p154
S'16000000L'
p155
sS'variant'
p156
S'standard'
p157
ssS'bootloader'
p158
(dp159
S'extended_fuses'
p160
S'0x05'
p161
sS'high_fuses'
p162
S'0xDA'
p163
sS'low_fuses'
p164
S'0xFF'
p165
sS'lock_bits'
p166
S'0x0F'
p167
sS'file'
p168
S'ATmegaBOOT_168_atmega328.hex'
p169
sS'path'
p170
S'atmega'
p171
sS'unlock_bits'
p172
S'0x3F'
p173
ssS'name'
p174
S'Arduino Duemilanove w/ ATmega328'
p175
sS'upload'
p176
(dp177
S'speed'
p178
S'57600'
p179
sS'maximum_size'
p180
S'30720'
p181
sS'protocol'
p182
S'arduino'
p183
ssaa(lp184
S'diecimila'
p185
a(dp186
S'build'
p187
(dp188
S'core'
p189
S'arduino'
p190
sS'mcu'
p191
S'atmega168'
p192
sS'f_cpu'
p193
S'16000000L'
p194
sS'variant'
p195
S'standard'
p196
ssS'bootloader'
p197
(dp198
S'extended_fuses'
p199
S'0x00'
p200
sS'high_fuses'
p201
S'0xdd'
p202
sS'low_fuses'
p203
S'0xff'
p204
sS'lock_bits'
p205
S'0x0F'
p206
sS'file'
p207
S'ATmegaBOOT_168_diecimila.hex'
p208
sS'path'
p209
S'atmega'
p210
sS'unlock_bits'
p211
S'0x3F'
p212
ssS'name'
p213
S'Arduino Diecimila or Duemilanove w/ ATmega168'
p214
sS'upload'
p215
(dp216
S'speed'
p217
S'19200'
p218
sS'maximum_size'
p219
S'14336'
p220
sS'protocol'
p221
S'arduino'
p222
ssaa(lp223
S'nano328'
p224
a(dp225
S'build'
p226
(dp227
S'core'
p228
S'arduino'
p229
sS'mcu'
p230
S'atmega328p'
p231
sS'f_cpu'
p232
S'16000000L'
p233
sS'variant'
p234
S'eightanaloginputs'
p235
ssS'bootloader'
p236
(dp237
S'extended_fuses'
p238
S'0x05'
p239
sS'high_fuses'
p240
S'0xDA'
p241
sS'low_fuses'
p242
S'0xFF'
p243
sS'lock_bits'
p244
S'0x0F'
p245
sS'file'
p246
S'ATmegaBOOT_168_atmega328.hex'
p247
sS'path'
p248
S'atmega'
p249
sS'unlock_bits'
p250
S'0x3F'
p251
ssS'name'
p252
S'Arduino Nano w/ ATmega328'
p253
sS'upload'
p254
(dp255
S'speed'
p256
S'57600'
p257
sS'maximum_size'
p258
S'30720'
p259
sS'protocol'
p260
S'arduino'
p261
ssaa(lp262
S'nano'
p263
a(dp264
S'build'
p265
(dp266
S'core'
p267
S'arduino'
p268
sS'mcu'
p269
S'atmega168'
p270
sS'f_cpu'
p271
S'16000000L'
p272
sS'variant'
p273
S'eightanaloginputs'
p274
ssS'bootloader'
p275
(dp276
S'extended_fuses'
p277
S'0x00'
p278
sS'high_fuses'
p279
S'0xdd'
p280
sS'low_fuses'
p281
S'0xff'
p282
sS'lock_bits'
p283
S'0x0F'
p284
sS'file'
p285
S'ATmegaBOOT_168_diecimila.hex'
p286
sS'path'
p287
S'atmega'
p288
sS'unlock_bits'
p289
S'0x3F'
p290
ssS'name'
p291
S'Arduino Nano w/ ATmega168'
p292
sS'upload'
p293
(dp294
S'speed'
p295
S'19200'
p296
sS'maximum_size'
p297
S'14336'
p298
sS'protocol'
p299
S'arduino'
p300
ssaa(lp301
S'mega2560'
p302
a(dp303
S'build'
p304
(dp305
S'core'
p306
S'arduino'
p307
sS'mcu'
p308
S'atmega2560'
p309
sS'f_cpu'
p310
S'16000000L'
p311
sS'variant'
p312
S'mega'
p313
ssS'bootloader'
p314
(dp315
S'extended_fuses'
p316
S'0xFD'
p317
sS'high_fuses'
p318
S'0xD8'
p319
sS'low_fuses'
p320
S'0xFF'
p321
sS'lock_bits'
p322
S'0x0F'
p323
sS'file'
p324
S'stk500boot_v2_mega2560.hex'
p325
sS'path'
p326
S'stk500v2'
p327
sS'unlock_bits'
p328
S'0x3F'
p329
ssS'name'
p330
S'Arduino Mega 2560 or Mega ADK'
p331
sS'upload'
p332
(dp333
S'speed'
p334
S'115200'
p335
sS'maximum_size'
p336
S'258048'
p337
sS'protocol'
p338
S'wiring'
p339
ssaa(lp340
S'mega'
p341
a(dp342
S'build'
p343
(dp344
S'core'
p345
S'arduino'
p346
sS'mcu'
p347
S'atmega1280'
p348
sS'f_cpu'
p349
S'16000000L'
p350
sS'variant'
p351
S'mega'
p352
ssS'bootloader'
p353
(dp354
S'extended_fuses'
p355
S'0xF5'
p356
sS'high_fuses'
p357
S'0xDA'
p358
sS'low_fuses'
p359
S'0xFF'
p360
sS'lock_bits'
p361
S'0x0F'
p362
sS'file'
p363
S'ATmegaBOOT_168_atmega1280.hex'
p364
sS'path'
p365
S'atmega'
p366
sS'unlock_bits'
p367
S'0x3F'
p368
ssS'name'
p369
S'Arduino Mega (ATmega1280)'
p370
sS'upload'
p371
(dp372
S'speed'
p373
S'57600'
p374
sS'maximum_size'
p375
S'126976'
p376
sS'protocol'
p377
S'arduino'
p378
ssaa(lp379
S'leonardo'
p380
a(dp381
S'build'
p382
(dp383
S'core'
p384
S'arduino'
p385
sS'f_cpu'
p386
S'16000000L'
p387
sS'vid'
p388
S'0x2341'
p389
sS'pid'
p390
S'0x8036'
p391
sS'variant'
p392
S'leonardo'
p393
sS'mcu'
p394
S'atmega32u4'
p395
ssS'bootloader'
p396
(dp397
S'extended_fuses'
p398
S'0xcb'
p399
sS'high_fuses'
p400
S'0xd8'
p401
sS'low_fuses'
p402
S'0xff'
p403
sS'lock_bits'
p404
S'0x2F'
p405
sS'file'
p406
S'Caterina-Leonardo.hex'
p407
sS'path'
p408
S'caterina'
p409
sS'unlock_bits'
p410
S'0x3F'
p411
ssS'name'
p412
S'Arduino Leonardo'
p413
sS'upload'
p414
(dp415
S'speed'
p416
S'57600'
p417
sS'maximum_size'
p418
S'28672'
p419
sS'protocol'
p420
S'avr109'
p421
sS'disable_flushing'
p422
S'true'
p423
ssaa(lp424
S'esplora'
p425
a(dp426
S'build'
p427
(dp428
S'core'
p429
S'arduino'
p430
sS'f_cpu'
p431
S'16000000L'
p432
sS'vid'
p433
S'0x2341'
p434
sS'pid'
p435
S'0x803C'
p436
sS'variant'
p437
S'leonardo'
p438
sS'mcu'
p439
S'atmega32u4'
p440
ssS'bootloader'
p441
(dp442
S'extended_fuses'
p443
S'0xcb'
p444
sS'high_fuses'
p445
S'0xd8'
p446
sS'low_fuses'
p447
S'0xff'
p448
sS'lock_bits'
p449
S'0x2F'
p450
sS'file'
p451
S'Caterina-Esplora.hex'
p452
sS'path'
p453
S'caterina'
p454
sS'unlock_bits'
p455
S'0x3F'
p456
ssS'name'
p457
S'Arduino Esplora'
p458
sS'upload'
p459
(dp460
S'speed'
p461
S'57600'
p462
sS'maximum_size'
p463
S'28672'
p464
sS'protocol'
p465
S'avr109'
p466
sS'disable_flushing'
p467
S'true'
p468
ssaa(lp469
S'micro'
p470
a(dp471
S'build'
p472
(dp473
S'core'
p474
S'arduino'
p475
sS'f_cpu'
p476
S'16000000L'
p477
sS'vid'
p478
S'0x2341'
p479
sS'pid'
p480
S'0x8037'
p481
sS'variant'
p482
S'micro'
p483
sS'mcu'
p484
S'atmega32u4'
p485
ssS'bootloader'
p486
(dp487
S'extended_fuses'
p488
S'0xcb'
p489
sS'high_fuses'
p490
S'0xd8'
p491
sS'low_fuses'
p492
S'0xff'
p493
sS'lock_bits'
p494
S'0x2F'
p495
sS'file'
p496
S'Caterina-Micro.hex'
p497
sS'path'
p498
S'caterina'
p499
sS'unlock_bits'
p500
S'0x3F'
p501
ssS'name'
p502
S'Arduino Micro'
p503
sS'upload'
p504
(dp505
S'speed'
p506
S'57600'
p507
sS'maximum_size'
p508
S'28672'
p509
sS'protocol'
p510
S'avr109'
p511
sS'disable_flushing'
p512
S'true'
p513
ssaa(lp514
S'mini328'
p515
a(dp516
S'build'
p517
(dp518
S'core'
p519
S'arduino'
p520
sS'mcu'
p521
S'atmega328p'
p522
sS'f_cpu'
p523
S'16000000L'
p524
sS'variant'
p525
S'eightanaloginputs'
p526
ssS'bootloader'
p527
(dp528
S'extended_fuses'
p529
S'0x05'
p530
sS'high_fuses'
p531
S'0xd8'
p532
sS'low_fuses'
p533
S'0xff'
p534
sS'lock_bits'
p535
S'0x0F'
p536
sS'file'
p537
S'optiboot_atmega328-Mini.hex'
p538
sS'path'
p539
S'optiboot'
p540
sS'unlock_bits'
p541
S'0x3F'
p542
ssS'name'
p543
S'Arduino Mini w/ ATmega328'
p544
sS'upload'
p545
(dp546
S'speed'
p547
S'115200'
p548
sS'maximum_size'
p549
S'28672'
p550
sS'protocol'
p551
S'arduino'
p552
ssaa(lp553
S'mini'
p554
a(dp555
S'build'
p556
(dp557
S'core'
p558
S'arduino'
p559
sS'mcu'
p560
S'atmega168'
p561
sS'f_cpu'
p562
S'16000000L'
p563
sS'variant'
p564
S'eightanaloginputs'
p565
ssS'bootloader'
p566
(dp567
S'extended_fuses'
p568
S'0x00'
p569
sS'high_fuses'
p570
S'0xdd'
p571
sS'low_fuses'
p572
S'0xff'
p573
sS'lock_bits'
p574
S'0x0F'
p575
sS'file'
p576
S'ATmegaBOOT_168_ng.hex'
p577
sS'path'
p578
S'atmega'
p579
sS'unlock_bits'
p580
S'0x3F'
p581
ssS'name'
p582
S'Arduino Mini w/ ATmega168'
p583
sS'upload'
p584
(dp585
S'speed'
p586
S'19200'
p587
sS'maximum_size'
p588
S'14336'
p589
sS'protocol'
p590
S'arduino'
p591
ssaa(lp592
S'ethernet'
p593
a(dp594
S'build'
p595
(dp596
S'f_cpu'
p597
S'16000000L'
p598
sS'mcu'
p599
S'atmega328p'
p600
sS'variant'
p601
S'standard'
p602
sS'core'
p603
S'arduino'
p604
ssS'bootloader'
p605
(dp606
S'extended_fuses'
p607
S'0x05'
p608
sS'high_fuses'
p609
S'0xde'
p610
sS'low_fuses'
p611
S'0xff'
p612
sS'lock_bits'
p613
S'0x0F'
p614
sS'file'
p615
S'optiboot_atmega328.hex'
p616
sS'path'
p617
S'optiboot'
p618
sS'unlock_bits'
p619
S'0x3F'
p620
ssS'name'
p621
S'Arduino Ethernet'
p622
sS'upload'
p623
(dp624
S'speed'
p625
S'115200'
p626
sS'maximum_size'
p627
S'32256'
p628
sS'protocol'
p629
S'arduino'
p630
ssaa(lp631
S'fio'
p632
a(dp633
S'build'
p634
(dp635
S'core'
p636
S'arduino'
p637
sS'mcu'
p638
S'atmega328p'
p639
sS'f_cpu'
p640
S'8000000L'
p641
sS'variant'
p642
S'eightanaloginputs'
p643
ssS'bootloader'
p644
(dp645
S'extended_fuses'
p646
S'0x05'
p647
sS'high_fuses'
p648
S'0xDA'
p649
sS'low_fuses'
p650
S'0xFF'
p651
sS'lock_bits'
p652
S'0x0F'
p653
sS'file'
p654
S'ATmegaBOOT_168_atmega328_pro_8MHz.hex'
p655
sS'path'
p656
S'arduino:atmega'
p657
sS'unlock_bits'
p658
S'0x3F'
p659
ssS'name'
p660
S'Arduino Fio'
p661
sS'upload'
p662
(dp663
S'speed'
p664
S'57600'
p665
sS'maximum_size'
p666
S'30720'
p667
sS'protocol'
p668
S'arduino'
p669
ssaa(lp670
S'bt328'
p671
a(dp672
S'build'
p673
(dp674
S'core'
p675
S'arduino'
p676
sS'mcu'
p677
S'atmega328p'
p678
sS'f_cpu'
p679
S'16000000L'
p680
sS'variant'
p681
S'eightanaloginputs'
p682
ssS'bootloader'
p683
(dp684
S'extended_fuses'
p685
S'0x05'
p686
sS'high_fuses'
p687
S'0xd8'
p688
sS'low_fuses'
p689
S'0xff'
p690
sS'lock_bits'
p691
S'0x0F'
p692
sS'file'
p693
S'ATmegaBOOT_168_atmega328_bt.hex'
p694
sS'path'
p695
S'bt'
p696
sS'unlock_bits'
p697
S'0x3F'
p698
ssS'name'
p699
S'Arduino BT w/ ATmega328'
p700
sS'upload'
p701
(dp702
S'speed'
p703
S'19200'
p704
sS'maximum_size'
p705
S'28672'
p706
sS'protocol'
p707
S'arduino'
p708
sS'disable_flushing'
p709
S'true'
p710
ssaa(lp711
S'bt'
p712
a(dp713
S'build'
p714
(dp715
S'core'
p716
S'arduino'
p717
sS'mcu'
p718
S'atmega168'
p719
sS'f_cpu'
p720
S'16000000L'
p721
sS'variant'
p722
S'eightanaloginputs'
p723
ssS'bootloader'
p724
(dp725
S'extended_fuses'
p726
S'0x00'
p727
sS'high_fuses'
p728
S'0xdd'
p729
sS'low_fuses'
p730
S'0xff'
p731
sS'lock_bits'
p732
S'0x0F'
p733
sS'file'
p734
S'ATmegaBOOT_168.hex'
p735
sS'path'
p736
S'bt'
p737
sS'unlock_bits'
p738
S'0x3F'
p739
ssS'name'
p740
S'Arduino BT w/ ATmega168'
p741
sS'upload'
p742
(dp743
S'speed'
p744
S'19200'
p745
sS'maximum_size'
p746
S'14336'
p747
sS'protocol'
p748
S'arduino'
p749
sS'disable_flushing'
p750
S'true'
p751
ssaa(lp752
S'LilyPadUSB'
p753
a(dp754
S'build'
p755
(dp756
S'core'
p757
S'arduino'
p758
sS'f_cpu'
p759
S'8000000L'
p760
sS'vid'
p761
S'0x1B4F'
p762
sS'pid'
p763
S'0x9208'
p764
sS'variant'
p765
S'leonardo'
p766
sS'mcu'
p767
S'atmega32u4'
p768
ssS'bootloader'
p769
(dp770
S'extended_fuses'
p771
S'0xce'
p772
sS'high_fuses'
p773
S'0xd8'
p774
sS'low_fuses'
p775
S'0xff'
p776
sS'lock_bits'
p777
S'0x2F'
p778
sS'file'
p779
S'Caterina-LilyPadUSB.hex'
p780
sS'path'
p781
S'caterina-LilyPadUSB'
p782
sS'unlock_bits'
p783
S'0x3F'
p784
ssS'name'
p785
S'LilyPad Arduino USB'
p786
sS'upload'
p787
(dp788
S'speed'
p789
S'57600'
p790
sS'maximum_size'
p791
S'28672'
p792
sS'protocol'
p793
S'avr109'
p794
sS'disable_flushing'
p795
S'true'
p796
ssaa(lp797
S'lilypad328'
p798
a(dp799
S'build'
p800
(dp801
S'core'
p802
S'arduino'
p803
sS'mcu'
p804
S'atmega328p'
p805
sS'f_cpu'
p806
S'8000000L'
p807
sS'variant'
p808
S'standard'
p809
ssS'bootloader'
p810
(dp811
S'extended_fuses'
p812
S'0x05'
p813
sS'high_fuses'
p814
S'0xDA'
p815
sS'low_fuses'
p816
S'0xFF'
p817
sS'lock_bits'
p818
S'0x0F'
p819
sS'file'
p820
S'ATmegaBOOT_168_atmega328_pro_8MHz.hex'
p821
sS'path'
p822
S'atmega'
p823
sS'unlock_bits'
p824
S'0x3F'
p825
ssS'name'
p826
S'LilyPad Arduino w/ ATmega328'
p827
sS'upload'
p828
(dp829
S'speed'
p830
S'57600'
p831
sS'maximum_size'
p832
S'30720'
p833
sS'protocol'
p834
S'arduino'
p835
ssaa(lp836
S'lilypad'
p837
a(dp838
S'build'
p839
(dp840
S'core'
p841
S'arduino'
p842
sS'mcu'
p843
S'atmega168'
p844
sS'f_cpu'
p845
S'8000000L'
p846
sS'variant'
p847
S'standard'
p848
ssS'bootloader'
p849
(dp850
S'extended_fuses'
p851
S'0x00'
p852
sS'high_fuses'
p853
S'0xdd'
p854
sS'low_fuses'
p855
S'0xe2'
p856
sS'lock_bits'
p857
S'0x0F'
p858
sS'file'
p859
S'LilyPadBOOT_168.hex'
p860
sS'path'
p861
S'lilypad'
p862
sS'unlock_bits'
p863
S'0x3F'
p864
ssS'name'
p865
S'LilyPad Arduino w/ ATmega168'
p866
sS'upload'
p867
(dp868
S'speed'
p869
S'19200'
p870
sS'maximum_size'
p871
S'14336'
p872
sS'protocol'
p873
S'arduino'
p874
ssaa(lp875
S'pro5v328'
p876
a(dp877
S'build'
p878
(dp879
S'core'
p880
S'arduino'
p881
sS'mcu'
p882
S'atmega328p'
p883
sS'f_cpu'
p884
S'16000000L'
p885
sS'variant'
p886
S'standard'
p887
ssS'bootloader'
p888
(dp889
S'extended_fuses'
p890
S'0x05'
p891
sS'high_fuses'
p892
S'0xDA'
p893
sS'low_fuses'
p894
S'0xFF'
p895
sS'lock_bits'
p896
S'0x0F'
p897
sS'file'
p898
S'ATmegaBOOT_168_atmega328.hex'
p899
sS'path'
p900
S'atmega'
p901
sS'unlock_bits'
p902
S'0x3F'
p903
ssS'name'
p904
S'Arduino Pro or Pro Mini (5V, 16 MHz) w/ ATmega328'
p905
sS'upload'
p906
(dp907
S'speed'
p908
S'57600'
p909
sS'maximum_size'
p910
S'30720'
p911
sS'protocol'
p912
S'arduino'
p913
ssaa(lp914
S'pro5v'
p915
a(dp916
S'build'
p917
(dp918
S'core'
p919
S'arduino'
p920
sS'mcu'
p921
S'atmega168'
p922
sS'f_cpu'
p923
S'16000000L'
p924
sS'variant'
p925
S'standard'
p926
ssS'bootloader'
p927
(dp928
S'extended_fuses'
p929
S'0x00'
p930
sS'high_fuses'
p931
S'0xdd'
p932
sS'low_fuses'
p933
S'0xff'
p934
sS'lock_bits'
p935
S'0x0F'
p936
sS'file'
p937
S'ATmegaBOOT_168_diecimila.hex'
p938
sS'path'
p939
S'atmega'
p940
sS'unlock_bits'
p941
S'0x3F'
p942
ssS'name'
p943
S'Arduino Pro or Pro Mini (5V, 16 MHz) w/ ATmega168'
p944
sS'upload'
p945
(dp946
S'speed'
p947
S'19200'
p948
sS'maximum_size'
p949
S'14336'
p950
sS'protocol'
p951
S'arduino'
p952
ssaa(lp953
S'pro328'
p954
a(dp955
S'build'
p956
(dp957
S'core'
p958
S'arduino'
p959
sS'mcu'
p960
S'atmega328p'
p961
sS'f_cpu'
p962
S'8000000L'
p963
sS'variant'
p964
S'standard'
p965
ssS'bootloader'
p966
(dp967
S'extended_fuses'
p968
S'0x05'
p969
sS'high_fuses'
p970
S'0xDA'
p971
sS'low_fuses'
p972
S'0xFF'
p973
sS'lock_bits'
p974
S'0x0F'
p975
sS'file'
p976
S'ATmegaBOOT_168_atmega328_pro_8MHz.hex'
p977
sS'path'
p978
S'atmega'
p979
sS'unlock_bits'
p980
S'0x3F'
p981
ssS'name'
p982
S'Arduino Pro or Pro Mini (3.3V, 8 MHz) w/ ATmega328'
p983
sS'upload'
p984
(dp985
S'speed'
p986
S'57600'
p987
sS'maximum_size'
p988
S'30720'
p989
sS'protocol'
p990
S'arduino'
p991
ssaa(lp992
S'pro'
p993
a(dp994
S'build'
p995
(dp996
S'core'
p997
S'arduino'
p998
sS'mcu'
p999
S'atmega168'
p1000
sS'f_cpu'
p1001
S'8000000L'
p1002
sS'variant'
p1003
S'standard'
p1004
ssS'bootloader'
p1005
(dp1006
S'extended_fuses'
p1007
S'0x00'
p1008
sS'high_fuses'
p1009
S'0xdd'
p1010
sS'low_fuses'
p1011
S'0xc6'
p1012
sS'lock_bits'
p1013
S'0x0F'
p1014
sS'file'
p1015
S'ATmegaBOOT_168_pro_8MHz.hex'
p1016
sS'path'
p1017
S'atmega'
p1018
sS'unlock_bits'
p1019
S'0x3F'
p1020
ssS'name'
p1021
S'Arduino Pro or Pro Mini (3.3V, 8 MHz) w/ ATmega168'
p1022
sS'upload'
p1023
(dp1024
S'speed'
p1025
S'19200'
p1026
sS'maximum_size'
p1027
S'14336'
p1028
sS'protocol'
p1029
S'arduino'
p1030
ssaa(lp1031
S'atmega168'
p1032
a(dp1033
S'build'
p1034
(dp1035
S'core'
p1036
S'arduino'
p1037
sS'mcu'
p1038
S'atmega168'
p1039
sS'f_cpu'
p1040
S'16000000L'
p1041
sS'variant'
p1042
S'standard'
p1043
ssS'bootloader'
p1044
(dp1045
S'extended_fuses'
p1046
S'0x00'
p1047
sS'high_fuses'
p1048
S'0xdd'
p1049
sS'low_fuses'
p1050
S'0xff'
p1051
sS'lock_bits'
p1052
S'0x0F'
p1053
sS'file'
p1054
S'ATmegaBOOT_168_ng.hex'
p1055
sS'path'
p1056
S'atmega'
p1057
sS'unlock_bits'
p1058
S'0x3F'
p1059
ssS'name'
p1060
S'Arduino NG or older w/ ATmega168'
p1061
sS'upload'
p1062
(dp1063
S'speed'
p1064
S'19200'
p1065
sS'maximum_size'
p1066
S'14336'
p1067
sS'protocol'
p1068
S'arduino'
p1069
ssaa(lp1070
S'atmega8'
p1071
a(dp1072
S'build'
p1073
(dp1074
S'core'
p1075
S'arduino'
p1076
sS'mcu'
p1077
S'atmega8'
p1078
sS'f_cpu'
p1079
S'16000000L'
p1080
sS'variant'
p1081
S'standard'
p1082
ssS'bootloader'
p1083
(dp1084
S'high_fuses'
p1085
S'0xca'
p1086
sS'low_fuses'
p1087
S'0xdf'
p1088
sS'lock_bits'
p1089
S'0x0F'
p1090
sS'file'
p1091
S'ATmegaBOOT-prod-firmware-2009-11-07.hex'
p1092
sS'path'
p1093
S'atmega8'
p1094
sS'unlock_bits'
p1095
S'0x3F'
p1096
ssS'name'
p1097
S'Arduino NG or older w/ ATmega8'
p1098
sS'upload'
p1099
(dp1100
S'speed'
p1101
S'19200'
p1102
sS'maximum_size'
p1103
S'7168'
p1104
sS'protocol'
p1105
S'arduino'
p1106
ssaa(lp1107
S'robotControl'
p1108
a(dp1109
S'build'
p1110
(dp1111
S'core'
p1112
S'robot'
p1113
sS'f_cpu'
p1114
S'16000000L'
p1115
sS'vid'
p1116
S'0x2341'
p1117
sS'pid'
p1118
S'0x8038'
p1119
sS'variant'
p1120
S'robot_control'
p1121
sS'mcu'
p1122
S'atmega32u4'
p1123
ssS'bootloader'
p1124
(dp1125
S'extended_fuses'
p1126
S'0xcb'
p1127
sS'high_fuses'
p1128
S'0xd8'
p1129
sS'low_fuses'
p1130
S'0xff'
p1131
sS'lock_bits'
p1132
S'0x2F'
p1133
sS'file'
p1134
S'Caterina-Robot-Control.hex'
p1135
sS'path'
p1136
S'caterina-Arduino_Robot'
p1137
sS'unlock_bits'
p1138
S'0x3F'
p1139
ssS'name'
p1140
S'Arduino Robot Control'
p1141
sS'upload'
p1142
(dp1143
S'speed'
p1144
S'57600'
p1145
sS'maximum_size'
p1146
S'28672'
p1147
sS'protocol'
p1148
S'avr109'
p1149
sS'disable_flushing'
p1150
S'true'
p1151
ssaa(lp1152
S'robotMotor'
p1153
a(dp1154
S'build'
p1155
(dp1156
S'core'
p1157
S'robot'
p1158
sS'f_cpu'
p1159
S'16000000L'
p1160
sS'vid'
p1161
S'0x2341'
p1162
sS'pid'
p1163
S'0x8039'
p1164
sS'variant'
p1165
S'robot_motor'
p1166
sS'mcu'
p1167
S'atmega32u4'
p1168
ssS'bootloader'
p1169
(dp1170
S'extended_fuses'
p1171
S'0xcb'
p1172
sS'high_fuses'
p1173
S'0xd8'
p1174
sS'low_fuses'
p1175
S'0xff'
p1176
sS'lock_bits'
p1177
S'0x2F'
p1178
sS'file'
p1179
S'Caterina-Robot-Motor.hex'
p1180
sS'path'
p1181
S'caterina-Arduino_Robot'
p1182
sS'unlock_bits'
p1183
S'0x3F'
p1184
ssS'name'
p1185
S'Arduino Robot Motor'
p1186
sS'upload'
p1187
(dp1188
S'speed'
p1189
S'57600'
p1190
sS'maximum_size'
p1191
S'28672'
p1192
sS'protocol'
p1193
S'avr109'
p1194
sS'disable_flushing'
p1195
S'true'
p1196
ssaatp1197
Rp1198
(dp1199
S'default'
p1200
S'uno'
p1201
sbtp1202
a(S'cxx'
p1203
S'/Applications/Arduino.app/Contents/Resources/Java/hardware/tools/avr/bin/avr-g++'
p1204
tp1205
a.