(lp0
(S'cppflags'
p1
ccopy_reg
_reconstructor
p2
(cino.utils
SpaceList
p3
c__builtin__
list
p4
(lp5
S'-mmcu=atmega328p'
p6
aS'-DF_CPU=16000000L'
p7
aS'-DARDUINO=105'
p8
aS'-I/Applications/Arduino.app/Contents/Resources/Java/hardware/arduino/cores/arduino'
p9
aS'-ffunction-sections'
p10
aS'-fdata-sections'
p11
aS'-g'
p12
aS'-Os'
p13
aS'-w'
p14
aS'-I/Applications/Arduino.app/Contents/Resources/Java/hardware/arduino/variants/standard'
p15
aS'-Ilib/OneWire'
p16
aS'-Ilib/RTClib'
p17
aS'-Ilib/EEPROMEx'
p18
aS'-Ilib/EEPROMEx/Examples'
p19
aS'-Ilib/EEPROMEx/Examples/EEPROMEx'
p20
aS'-Ilib/EEPROMEx/Examples/EEPROMVar'
p21
aS'-Ilib/SD'
p22
aS'-Ilib/SD/utility'
p23
aS'-Ilib/Wire'
p24
aS'-Ilib/Wire/utility'
p25
aS'-I/Applications/Arduino.app/Contents/Resources/Java/hardware/arduino/cores/arduino'
p26
aS'-I/Applications/Arduino.app/Contents/Resources/Java/hardware/arduino/cores/arduino/avr-libc'
p27
atp28
Rp29
tp30
a(S'version.txt'
p31
S'/Applications/Arduino.app/Contents/Resources/Java/lib/version.txt'
p32
tp33
a(S'used_libs'
p34
(lp35
S'lib/OneWire'
p36
aS'lib/RTClib'
p37
aS'lib/EEPROMEx'
p38
aS'lib/SD'
p39
aS'lib/Wire'
p40
aS'/Applications/Arduino.app/Contents/Resources/Java/hardware/arduino/cores/arduino'
p41
atp42
a(S'cc'
p43
S'/Applications/Arduino.app/Contents/Resources/Java/hardware/tools/avr/bin/avr-gcc'
p44
tp45
a(S'make'
p46
S'/Applications/Arduino.app/Contents/Resources/Java/hardware/tools/avr/bin/make'
p47
tp48
a(S'build_dir'
p49
S'.build/uno'
p50
tp51
a(S'arduino_core_dir'
p52
g41
tp53
a(S'boards.txt'
p54
S'/Applications/Arduino.app/Contents/Resources/Java/hardware/arduino/boards.txt'
p55
tp56
a(S'cxxflags'
p57
g2
(g3
g4
(lp58
S'-fno-exceptions'
p59
atp60
Rp61
tp62
a(S'arduino_variants_dir'
p63
S'/Applications/Arduino.app/Contents/Resources/Java/hardware/arduino/variants'
p64
tp65
a(S'deps'
p66
g2
(g3
g4
(lp67
S'.build/uno/src/dependencies.d'
p68
aS'.build/uno/arduino/dependencies.d'
p69
aS'.build/uno/OneWire/dependencies.d'
p70
aS'.build/uno/Wire/dependencies.d'
p71
aS'.build/uno/RTClib/dependencies.d'
p72
aS'.build/uno/EEPROMEx/dependencies.d'
p73
aS'.build/uno/SD/dependencies.d'
p74
atp75
Rp76
tp77
a(S'ar'
p78
S'/Applications/Arduino.app/Contents/Resources/Java/hardware/tools/avr/bin/avr-ar'
p79
tp80
a(S'names'
p81
(dp82
S'cpp'
p83
S'%s.cpp'
p84
sS'obj'
p85
S'%s.o'
p86
sg66
S'%s.d'
p87
sS'lib'
p88
S'lib%s.a'
p89
stp90
a(S'cflags'
p91
g2
(g3
g4
(lp92
tp93
Rp94
tp95
a(S'ldflags'
p96
g2
(g3
g4
(lp97
g6
aS'-Wl,-Os'
p98
aS'-Wl,--gc-sections'
p99
atp100
Rp101
tp102
a(S'arduino_libraries_dir'
p103
S'/Applications/Arduino.app/Contents/Resources/Java/libraries'
p104
tp105
a(S'arduino_lib_version'
p106
g2
(cino.environment
Version
p107
c__builtin__
tuple
p108
(I1
I0
I5
tp109
tp110
Rp111
tp112
a(S'objcopy'
p113
S'/Applications/Arduino.app/Contents/Resources/Java/hardware/tools/avr/bin/avr-objcopy'
p114
tp115
a(S'board_models'
p116
cino.environment
BoardModels
p117
((lp118
(lp119
S'uno'
p120
a(dp121
S'build'
p122
(dp123
S'core'
p124
S'arduino'
p125
sS'mcu'
p126
S'atmega328p'
p127
sS'f_cpu'
p128
S'16000000L'
p129
sS'variant'
p130
S'standard'
p131
ssS'bootloader'
p132
(dp133
S'extended_fuses'
p134
S'0x05'
p135
sS'high_fuses'
p136
S'0xde'
p137
sS'low_fuses'
p138
S'0xff'
p139
sS'lock_bits'
p140
S'0x0F'
p141
sS'file'
p142
S'optiboot_atmega328.hex'
p143
sS'path'
p144
S'optiboot'
p145
sS'unlock_bits'
p146
S'0x3F'
p147
ssS'name'
p148
S'Arduino Uno'
p149
sS'upload'
p150
(dp151
S'speed'
p152
S'115200'
p153
sS'maximum_size'
p154
S'32256'
p155
sS'protocol'
p156
S'arduino'
p157
ssaa(lp158
S'atmega328'
p159
a(dp160
S'build'
p161
(dp162
S'core'
p163
S'arduino'
p164
sS'mcu'
p165
S'atmega328p'
p166
sS'f_cpu'
p167
S'16000000L'
p168
sS'variant'
p169
S'standard'
p170
ssS'bootloader'
p171
(dp172
S'extended_fuses'
p173
S'0x05'
p174
sS'high_fuses'
p175
S'0xDA'
p176
sS'low_fuses'
p177
S'0xFF'
p178
sS'lock_bits'
p179
S'0x0F'
p180
sS'file'
p181
S'ATmegaBOOT_168_atmega328.hex'
p182
sS'path'
p183
S'atmega'
p184
sS'unlock_bits'
p185
S'0x3F'
p186
ssS'name'
p187
S'Arduino Duemilanove w/ ATmega328'
p188
sS'upload'
p189
(dp190
S'speed'
p191
S'57600'
p192
sS'maximum_size'
p193
S'30720'
p194
sS'protocol'
p195
S'arduino'
p196
ssaa(lp197
S'diecimila'
p198
a(dp199
S'build'
p200
(dp201
S'core'
p202
S'arduino'
p203
sS'mcu'
p204
S'atmega168'
p205
sS'f_cpu'
p206
S'16000000L'
p207
sS'variant'
p208
S'standard'
p209
ssS'bootloader'
p210
(dp211
S'extended_fuses'
p212
S'0x00'
p213
sS'high_fuses'
p214
S'0xdd'
p215
sS'low_fuses'
p216
S'0xff'
p217
sS'lock_bits'
p218
S'0x0F'
p219
sS'file'
p220
S'ATmegaBOOT_168_diecimila.hex'
p221
sS'path'
p222
S'atmega'
p223
sS'unlock_bits'
p224
S'0x3F'
p225
ssS'name'
p226
S'Arduino Diecimila or Duemilanove w/ ATmega168'
p227
sS'upload'
p228
(dp229
S'speed'
p230
S'19200'
p231
sS'maximum_size'
p232
S'14336'
p233
sS'protocol'
p234
S'arduino'
p235
ssaa(lp236
S'nano328'
p237
a(dp238
S'build'
p239
(dp240
S'core'
p241
S'arduino'
p242
sS'mcu'
p243
S'atmega328p'
p244
sS'f_cpu'
p245
S'16000000L'
p246
sS'variant'
p247
S'eightanaloginputs'
p248
ssS'bootloader'
p249
(dp250
S'extended_fuses'
p251
S'0x05'
p252
sS'high_fuses'
p253
S'0xDA'
p254
sS'low_fuses'
p255
S'0xFF'
p256
sS'lock_bits'
p257
S'0x0F'
p258
sS'file'
p259
S'ATmegaBOOT_168_atmega328.hex'
p260
sS'path'
p261
S'atmega'
p262
sS'unlock_bits'
p263
S'0x3F'
p264
ssS'name'
p265
S'Arduino Nano w/ ATmega328'
p266
sS'upload'
p267
(dp268
S'speed'
p269
S'57600'
p270
sS'maximum_size'
p271
S'30720'
p272
sS'protocol'
p273
S'arduino'
p274
ssaa(lp275
S'nano'
p276
a(dp277
S'build'
p278
(dp279
S'core'
p280
S'arduino'
p281
sS'mcu'
p282
S'atmega168'
p283
sS'f_cpu'
p284
S'16000000L'
p285
sS'variant'
p286
S'eightanaloginputs'
p287
ssS'bootloader'
p288
(dp289
S'extended_fuses'
p290
S'0x00'
p291
sS'high_fuses'
p292
S'0xdd'
p293
sS'low_fuses'
p294
S'0xff'
p295
sS'lock_bits'
p296
S'0x0F'
p297
sS'file'
p298
S'ATmegaBOOT_168_diecimila.hex'
p299
sS'path'
p300
S'atmega'
p301
sS'unlock_bits'
p302
S'0x3F'
p303
ssS'name'
p304
S'Arduino Nano w/ ATmega168'
p305
sS'upload'
p306
(dp307
S'speed'
p308
S'19200'
p309
sS'maximum_size'
p310
S'14336'
p311
sS'protocol'
p312
S'arduino'
p313
ssaa(lp314
S'mega2560'
p315
a(dp316
S'build'
p317
(dp318
S'core'
p319
S'arduino'
p320
sS'mcu'
p321
S'atmega2560'
p322
sS'f_cpu'
p323
S'16000000L'
p324
sS'variant'
p325
S'mega'
p326
ssS'bootloader'
p327
(dp328
S'extended_fuses'
p329
S'0xFD'
p330
sS'high_fuses'
p331
S'0xD8'
p332
sS'low_fuses'
p333
S'0xFF'
p334
sS'lock_bits'
p335
S'0x0F'
p336
sS'file'
p337
S'stk500boot_v2_mega2560.hex'
p338
sS'path'
p339
S'stk500v2'
p340
sS'unlock_bits'
p341
S'0x3F'
p342
ssS'name'
p343
S'Arduino Mega 2560 or Mega ADK'
p344
sS'upload'
p345
(dp346
S'speed'
p347
S'115200'
p348
sS'maximum_size'
p349
S'258048'
p350
sS'protocol'
p351
S'wiring'
p352
ssaa(lp353
S'mega'
p354
a(dp355
S'build'
p356
(dp357
S'core'
p358
S'arduino'
p359
sS'mcu'
p360
S'atmega1280'
p361
sS'f_cpu'
p362
S'16000000L'
p363
sS'variant'
p364
S'mega'
p365
ssS'bootloader'
p366
(dp367
S'extended_fuses'
p368
S'0xF5'
p369
sS'high_fuses'
p370
S'0xDA'
p371
sS'low_fuses'
p372
S'0xFF'
p373
sS'lock_bits'
p374
S'0x0F'
p375
sS'file'
p376
S'ATmegaBOOT_168_atmega1280.hex'
p377
sS'path'
p378
S'atmega'
p379
sS'unlock_bits'
p380
S'0x3F'
p381
ssS'name'
p382
S'Arduino Mega (ATmega1280)'
p383
sS'upload'
p384
(dp385
S'speed'
p386
S'57600'
p387
sS'maximum_size'
p388
S'126976'
p389
sS'protocol'
p390
S'arduino'
p391
ssaa(lp392
S'leonardo'
p393
a(dp394
S'build'
p395
(dp396
S'core'
p397
S'arduino'
p398
sS'f_cpu'
p399
S'16000000L'
p400
sS'vid'
p401
S'0x2341'
p402
sS'pid'
p403
S'0x8036'
p404
sS'variant'
p405
S'leonardo'
p406
sS'mcu'
p407
S'atmega32u4'
p408
ssS'bootloader'
p409
(dp410
S'extended_fuses'
p411
S'0xcb'
p412
sS'high_fuses'
p413
S'0xd8'
p414
sS'low_fuses'
p415
S'0xff'
p416
sS'lock_bits'
p417
S'0x2F'
p418
sS'file'
p419
S'Caterina-Leonardo.hex'
p420
sS'path'
p421
S'caterina'
p422
sS'unlock_bits'
p423
S'0x3F'
p424
ssS'name'
p425
S'Arduino Leonardo'
p426
sS'upload'
p427
(dp428
S'speed'
p429
S'57600'
p430
sS'maximum_size'
p431
S'28672'
p432
sS'protocol'
p433
S'avr109'
p434
sS'disable_flushing'
p435
S'true'
p436
ssaa(lp437
S'esplora'
p438
a(dp439
S'build'
p440
(dp441
S'core'
p442
S'arduino'
p443
sS'f_cpu'
p444
S'16000000L'
p445
sS'vid'
p446
S'0x2341'
p447
sS'pid'
p448
S'0x803C'
p449
sS'variant'
p450
S'leonardo'
p451
sS'mcu'
p452
S'atmega32u4'
p453
ssS'bootloader'
p454
(dp455
S'extended_fuses'
p456
S'0xcb'
p457
sS'high_fuses'
p458
S'0xd8'
p459
sS'low_fuses'
p460
S'0xff'
p461
sS'lock_bits'
p462
S'0x2F'
p463
sS'file'
p464
S'Caterina-Esplora.hex'
p465
sS'path'
p466
S'caterina'
p467
sS'unlock_bits'
p468
S'0x3F'
p469
ssS'name'
p470
S'Arduino Esplora'
p471
sS'upload'
p472
(dp473
S'speed'
p474
S'57600'
p475
sS'maximum_size'
p476
S'28672'
p477
sS'protocol'
p478
S'avr109'
p479
sS'disable_flushing'
p480
S'true'
p481
ssaa(lp482
S'micro'
p483
a(dp484
S'build'
p485
(dp486
S'core'
p487
S'arduino'
p488
sS'f_cpu'
p489
S'16000000L'
p490
sS'vid'
p491
S'0x2341'
p492
sS'pid'
p493
S'0x8037'
p494
sS'variant'
p495
S'micro'
p496
sS'mcu'
p497
S'atmega32u4'
p498
ssS'bootloader'
p499
(dp500
S'extended_fuses'
p501
S'0xcb'
p502
sS'high_fuses'
p503
S'0xd8'
p504
sS'low_fuses'
p505
S'0xff'
p506
sS'lock_bits'
p507
S'0x2F'
p508
sS'file'
p509
S'Caterina-Micro.hex'
p510
sS'path'
p511
S'caterina'
p512
sS'unlock_bits'
p513
S'0x3F'
p514
ssS'name'
p515
S'Arduino Micro'
p516
sS'upload'
p517
(dp518
S'speed'
p519
S'57600'
p520
sS'maximum_size'
p521
S'28672'
p522
sS'protocol'
p523
S'avr109'
p524
sS'disable_flushing'
p525
S'true'
p526
ssaa(lp527
S'mini328'
p528
a(dp529
S'build'
p530
(dp531
S'core'
p532
S'arduino'
p533
sS'mcu'
p534
S'atmega328p'
p535
sS'f_cpu'
p536
S'16000000L'
p537
sS'variant'
p538
S'eightanaloginputs'
p539
ssS'bootloader'
p540
(dp541
S'extended_fuses'
p542
S'0x05'
p543
sS'high_fuses'
p544
S'0xd8'
p545
sS'low_fuses'
p546
S'0xff'
p547
sS'lock_bits'
p548
S'0x0F'
p549
sS'file'
p550
S'optiboot_atmega328-Mini.hex'
p551
sS'path'
p552
S'optiboot'
p553
sS'unlock_bits'
p554
S'0x3F'
p555
ssS'name'
p556
S'Arduino Mini w/ ATmega328'
p557
sS'upload'
p558
(dp559
S'speed'
p560
S'115200'
p561
sS'maximum_size'
p562
S'28672'
p563
sS'protocol'
p564
S'arduino'
p565
ssaa(lp566
S'mini'
p567
a(dp568
S'build'
p569
(dp570
S'core'
p571
S'arduino'
p572
sS'mcu'
p573
S'atmega168'
p574
sS'f_cpu'
p575
S'16000000L'
p576
sS'variant'
p577
S'eightanaloginputs'
p578
ssS'bootloader'
p579
(dp580
S'extended_fuses'
p581
S'0x00'
p582
sS'high_fuses'
p583
S'0xdd'
p584
sS'low_fuses'
p585
S'0xff'
p586
sS'lock_bits'
p587
S'0x0F'
p588
sS'file'
p589
S'ATmegaBOOT_168_ng.hex'
p590
sS'path'
p591
S'atmega'
p592
sS'unlock_bits'
p593
S'0x3F'
p594
ssS'name'
p595
S'Arduino Mini w/ ATmega168'
p596
sS'upload'
p597
(dp598
S'speed'
p599
S'19200'
p600
sS'maximum_size'
p601
S'14336'
p602
sS'protocol'
p603
S'arduino'
p604
ssaa(lp605
S'ethernet'
p606
a(dp607
S'build'
p608
(dp609
S'f_cpu'
p610
S'16000000L'
p611
sS'mcu'
p612
S'atmega328p'
p613
sS'variant'
p614
S'standard'
p615
sS'core'
p616
S'arduino'
p617
ssS'bootloader'
p618
(dp619
S'extended_fuses'
p620
S'0x05'
p621
sS'high_fuses'
p622
S'0xde'
p623
sS'low_fuses'
p624
S'0xff'
p625
sS'lock_bits'
p626
S'0x0F'
p627
sS'file'
p628
S'optiboot_atmega328.hex'
p629
sS'path'
p630
S'optiboot'
p631
sS'unlock_bits'
p632
S'0x3F'
p633
ssS'name'
p634
S'Arduino Ethernet'
p635
sS'upload'
p636
(dp637
S'speed'
p638
S'115200'
p639
sS'maximum_size'
p640
S'32256'
p641
sS'protocol'
p642
S'arduino'
p643
ssaa(lp644
S'fio'
p645
a(dp646
S'build'
p647
(dp648
S'core'
p649
S'arduino'
p650
sS'mcu'
p651
S'atmega328p'
p652
sS'f_cpu'
p653
S'8000000L'
p654
sS'variant'
p655
S'eightanaloginputs'
p656
ssS'bootloader'
p657
(dp658
S'extended_fuses'
p659
S'0x05'
p660
sS'high_fuses'
p661
S'0xDA'
p662
sS'low_fuses'
p663
S'0xFF'
p664
sS'lock_bits'
p665
S'0x0F'
p666
sS'file'
p667
S'ATmegaBOOT_168_atmega328_pro_8MHz.hex'
p668
sS'path'
p669
S'arduino:atmega'
p670
sS'unlock_bits'
p671
S'0x3F'
p672
ssS'name'
p673
S'Arduino Fio'
p674
sS'upload'
p675
(dp676
S'speed'
p677
S'57600'
p678
sS'maximum_size'
p679
S'30720'
p680
sS'protocol'
p681
S'arduino'
p682
ssaa(lp683
S'bt328'
p684
a(dp685
S'build'
p686
(dp687
S'core'
p688
S'arduino'
p689
sS'mcu'
p690
S'atmega328p'
p691
sS'f_cpu'
p692
S'16000000L'
p693
sS'variant'
p694
S'eightanaloginputs'
p695
ssS'bootloader'
p696
(dp697
S'extended_fuses'
p698
S'0x05'
p699
sS'high_fuses'
p700
S'0xd8'
p701
sS'low_fuses'
p702
S'0xff'
p703
sS'lock_bits'
p704
S'0x0F'
p705
sS'file'
p706
S'ATmegaBOOT_168_atmega328_bt.hex'
p707
sS'path'
p708
S'bt'
p709
sS'unlock_bits'
p710
S'0x3F'
p711
ssS'name'
p712
S'Arduino BT w/ ATmega328'
p713
sS'upload'
p714
(dp715
S'speed'
p716
S'19200'
p717
sS'maximum_size'
p718
S'28672'
p719
sS'protocol'
p720
S'arduino'
p721
sS'disable_flushing'
p722
S'true'
p723
ssaa(lp724
S'bt'
p725
a(dp726
S'build'
p727
(dp728
S'core'
p729
S'arduino'
p730
sS'mcu'
p731
S'atmega168'
p732
sS'f_cpu'
p733
S'16000000L'
p734
sS'variant'
p735
S'eightanaloginputs'
p736
ssS'bootloader'
p737
(dp738
S'extended_fuses'
p739
S'0x00'
p740
sS'high_fuses'
p741
S'0xdd'
p742
sS'low_fuses'
p743
S'0xff'
p744
sS'lock_bits'
p745
S'0x0F'
p746
sS'file'
p747
S'ATmegaBOOT_168.hex'
p748
sS'path'
p749
S'bt'
p750
sS'unlock_bits'
p751
S'0x3F'
p752
ssS'name'
p753
S'Arduino BT w/ ATmega168'
p754
sS'upload'
p755
(dp756
S'speed'
p757
S'19200'
p758
sS'maximum_size'
p759
S'14336'
p760
sS'protocol'
p761
S'arduino'
p762
sS'disable_flushing'
p763
S'true'
p764
ssaa(lp765
S'LilyPadUSB'
p766
a(dp767
S'build'
p768
(dp769
S'core'
p770
S'arduino'
p771
sS'f_cpu'
p772
S'8000000L'
p773
sS'vid'
p774
S'0x1B4F'
p775
sS'pid'
p776
S'0x9208'
p777
sS'variant'
p778
S'leonardo'
p779
sS'mcu'
p780
S'atmega32u4'
p781
ssS'bootloader'
p782
(dp783
S'extended_fuses'
p784
S'0xce'
p785
sS'high_fuses'
p786
S'0xd8'
p787
sS'low_fuses'
p788
S'0xff'
p789
sS'lock_bits'
p790
S'0x2F'
p791
sS'file'
p792
S'Caterina-LilyPadUSB.hex'
p793
sS'path'
p794
S'caterina-LilyPadUSB'
p795
sS'unlock_bits'
p796
S'0x3F'
p797
ssS'name'
p798
S'LilyPad Arduino USB'
p799
sS'upload'
p800
(dp801
S'speed'
p802
S'57600'
p803
sS'maximum_size'
p804
S'28672'
p805
sS'protocol'
p806
S'avr109'
p807
sS'disable_flushing'
p808
S'true'
p809
ssaa(lp810
S'lilypad328'
p811
a(dp812
S'build'
p813
(dp814
S'core'
p815
S'arduino'
p816
sS'mcu'
p817
S'atmega328p'
p818
sS'f_cpu'
p819
S'8000000L'
p820
sS'variant'
p821
S'standard'
p822
ssS'bootloader'
p823
(dp824
S'extended_fuses'
p825
S'0x05'
p826
sS'high_fuses'
p827
S'0xDA'
p828
sS'low_fuses'
p829
S'0xFF'
p830
sS'lock_bits'
p831
S'0x0F'
p832
sS'file'
p833
S'ATmegaBOOT_168_atmega328_pro_8MHz.hex'
p834
sS'path'
p835
S'atmega'
p836
sS'unlock_bits'
p837
S'0x3F'
p838
ssS'name'
p839
S'LilyPad Arduino w/ ATmega328'
p840
sS'upload'
p841
(dp842
S'speed'
p843
S'57600'
p844
sS'maximum_size'
p845
S'30720'
p846
sS'protocol'
p847
S'arduino'
p848
ssaa(lp849
S'lilypad'
p850
a(dp851
S'build'
p852
(dp853
S'core'
p854
S'arduino'
p855
sS'mcu'
p856
S'atmega168'
p857
sS'f_cpu'
p858
S'8000000L'
p859
sS'variant'
p860
S'standard'
p861
ssS'bootloader'
p862
(dp863
S'extended_fuses'
p864
S'0x00'
p865
sS'high_fuses'
p866
S'0xdd'
p867
sS'low_fuses'
p868
S'0xe2'
p869
sS'lock_bits'
p870
S'0x0F'
p871
sS'file'
p872
S'LilyPadBOOT_168.hex'
p873
sS'path'
p874
S'lilypad'
p875
sS'unlock_bits'
p876
S'0x3F'
p877
ssS'name'
p878
S'LilyPad Arduino w/ ATmega168'
p879
sS'upload'
p880
(dp881
S'speed'
p882
S'19200'
p883
sS'maximum_size'
p884
S'14336'
p885
sS'protocol'
p886
S'arduino'
p887
ssaa(lp888
S'pro5v328'
p889
a(dp890
S'build'
p891
(dp892
S'core'
p893
S'arduino'
p894
sS'mcu'
p895
S'atmega328p'
p896
sS'f_cpu'
p897
S'16000000L'
p898
sS'variant'
p899
S'standard'
p900
ssS'bootloader'
p901
(dp902
S'extended_fuses'
p903
S'0x05'
p904
sS'high_fuses'
p905
S'0xDA'
p906
sS'low_fuses'
p907
S'0xFF'
p908
sS'lock_bits'
p909
S'0x0F'
p910
sS'file'
p911
S'ATmegaBOOT_168_atmega328.hex'
p912
sS'path'
p913
S'atmega'
p914
sS'unlock_bits'
p915
S'0x3F'
p916
ssS'name'
p917
S'Arduino Pro or Pro Mini (5V, 16 MHz) w/ ATmega328'
p918
sS'upload'
p919
(dp920
S'speed'
p921
S'57600'
p922
sS'maximum_size'
p923
S'30720'
p924
sS'protocol'
p925
S'arduino'
p926
ssaa(lp927
S'pro5v'
p928
a(dp929
S'build'
p930
(dp931
S'core'
p932
S'arduino'
p933
sS'mcu'
p934
S'atmega168'
p935
sS'f_cpu'
p936
S'16000000L'
p937
sS'variant'
p938
S'standard'
p939
ssS'bootloader'
p940
(dp941
S'extended_fuses'
p942
S'0x00'
p943
sS'high_fuses'
p944
S'0xdd'
p945
sS'low_fuses'
p946
S'0xff'
p947
sS'lock_bits'
p948
S'0x0F'
p949
sS'file'
p950
S'ATmegaBOOT_168_diecimila.hex'
p951
sS'path'
p952
S'atmega'
p953
sS'unlock_bits'
p954
S'0x3F'
p955
ssS'name'
p956
S'Arduino Pro or Pro Mini (5V, 16 MHz) w/ ATmega168'
p957
sS'upload'
p958
(dp959
S'speed'
p960
S'19200'
p961
sS'maximum_size'
p962
S'14336'
p963
sS'protocol'
p964
S'arduino'
p965
ssaa(lp966
S'pro328'
p967
a(dp968
S'build'
p969
(dp970
S'core'
p971
S'arduino'
p972
sS'mcu'
p973
S'atmega328p'
p974
sS'f_cpu'
p975
S'8000000L'
p976
sS'variant'
p977
S'standard'
p978
ssS'bootloader'
p979
(dp980
S'extended_fuses'
p981
S'0x05'
p982
sS'high_fuses'
p983
S'0xDA'
p984
sS'low_fuses'
p985
S'0xFF'
p986
sS'lock_bits'
p987
S'0x0F'
p988
sS'file'
p989
S'ATmegaBOOT_168_atmega328_pro_8MHz.hex'
p990
sS'path'
p991
S'atmega'
p992
sS'unlock_bits'
p993
S'0x3F'
p994
ssS'name'
p995
S'Arduino Pro or Pro Mini (3.3V, 8 MHz) w/ ATmega328'
p996
sS'upload'
p997
(dp998
S'speed'
p999
S'57600'
p1000
sS'maximum_size'
p1001
S'30720'
p1002
sS'protocol'
p1003
S'arduino'
p1004
ssaa(lp1005
S'pro'
p1006
a(dp1007
S'build'
p1008
(dp1009
S'core'
p1010
S'arduino'
p1011
sS'mcu'
p1012
S'atmega168'
p1013
sS'f_cpu'
p1014
S'8000000L'
p1015
sS'variant'
p1016
S'standard'
p1017
ssS'bootloader'
p1018
(dp1019
S'extended_fuses'
p1020
S'0x00'
p1021
sS'high_fuses'
p1022
S'0xdd'
p1023
sS'low_fuses'
p1024
S'0xc6'
p1025
sS'lock_bits'
p1026
S'0x0F'
p1027
sS'file'
p1028
S'ATmegaBOOT_168_pro_8MHz.hex'
p1029
sS'path'
p1030
S'atmega'
p1031
sS'unlock_bits'
p1032
S'0x3F'
p1033
ssS'name'
p1034
S'Arduino Pro or Pro Mini (3.3V, 8 MHz) w/ ATmega168'
p1035
sS'upload'
p1036
(dp1037
S'speed'
p1038
S'19200'
p1039
sS'maximum_size'
p1040
S'14336'
p1041
sS'protocol'
p1042
S'arduino'
p1043
ssaa(lp1044
S'atmega168'
p1045
a(dp1046
S'build'
p1047
(dp1048
S'core'
p1049
S'arduino'
p1050
sS'mcu'
p1051
S'atmega168'
p1052
sS'f_cpu'
p1053
S'16000000L'
p1054
sS'variant'
p1055
S'standard'
p1056
ssS'bootloader'
p1057
(dp1058
S'extended_fuses'
p1059
S'0x00'
p1060
sS'high_fuses'
p1061
S'0xdd'
p1062
sS'low_fuses'
p1063
S'0xff'
p1064
sS'lock_bits'
p1065
S'0x0F'
p1066
sS'file'
p1067
S'ATmegaBOOT_168_ng.hex'
p1068
sS'path'
p1069
S'atmega'
p1070
sS'unlock_bits'
p1071
S'0x3F'
p1072
ssS'name'
p1073
S'Arduino NG or older w/ ATmega168'
p1074
sS'upload'
p1075
(dp1076
S'speed'
p1077
S'19200'
p1078
sS'maximum_size'
p1079
S'14336'
p1080
sS'protocol'
p1081
S'arduino'
p1082
ssaa(lp1083
S'atmega8'
p1084
a(dp1085
S'build'
p1086
(dp1087
S'core'
p1088
S'arduino'
p1089
sS'mcu'
p1090
S'atmega8'
p1091
sS'f_cpu'
p1092
S'16000000L'
p1093
sS'variant'
p1094
S'standard'
p1095
ssS'bootloader'
p1096
(dp1097
S'high_fuses'
p1098
S'0xca'
p1099
sS'low_fuses'
p1100
S'0xdf'
p1101
sS'lock_bits'
p1102
S'0x0F'
p1103
sS'file'
p1104
S'ATmegaBOOT-prod-firmware-2009-11-07.hex'
p1105
sS'path'
p1106
S'atmega8'
p1107
sS'unlock_bits'
p1108
S'0x3F'
p1109
ssS'name'
p1110
S'Arduino NG or older w/ ATmega8'
p1111
sS'upload'
p1112
(dp1113
S'speed'
p1114
S'19200'
p1115
sS'maximum_size'
p1116
S'7168'
p1117
sS'protocol'
p1118
S'arduino'
p1119
ssaa(lp1120
S'robotControl'
p1121
a(dp1122
S'build'
p1123
(dp1124
S'core'
p1125
S'robot'
p1126
sS'f_cpu'
p1127
S'16000000L'
p1128
sS'vid'
p1129
S'0x2341'
p1130
sS'pid'
p1131
S'0x8038'
p1132
sS'variant'
p1133
S'robot_control'
p1134
sS'mcu'
p1135
S'atmega32u4'
p1136
ssS'bootloader'
p1137
(dp1138
S'extended_fuses'
p1139
S'0xcb'
p1140
sS'high_fuses'
p1141
S'0xd8'
p1142
sS'low_fuses'
p1143
S'0xff'
p1144
sS'lock_bits'
p1145
S'0x2F'
p1146
sS'file'
p1147
S'Caterina-Robot-Control.hex'
p1148
sS'path'
p1149
S'caterina-Arduino_Robot'
p1150
sS'unlock_bits'
p1151
S'0x3F'
p1152
ssS'name'
p1153
S'Arduino Robot Control'
p1154
sS'upload'
p1155
(dp1156
S'speed'
p1157
S'57600'
p1158
sS'maximum_size'
p1159
S'28672'
p1160
sS'protocol'
p1161
S'avr109'
p1162
sS'disable_flushing'
p1163
S'true'
p1164
ssaa(lp1165
S'robotMotor'
p1166
a(dp1167
S'build'
p1168
(dp1169
S'core'
p1170
S'robot'
p1171
sS'f_cpu'
p1172
S'16000000L'
p1173
sS'vid'
p1174
S'0x2341'
p1175
sS'pid'
p1176
S'0x8039'
p1177
sS'variant'
p1178
S'robot_motor'
p1179
sS'mcu'
p1180
S'atmega32u4'
p1181
ssS'bootloader'
p1182
(dp1183
S'extended_fuses'
p1184
S'0xcb'
p1185
sS'high_fuses'
p1186
S'0xd8'
p1187
sS'low_fuses'
p1188
S'0xff'
p1189
sS'lock_bits'
p1190
S'0x2F'
p1191
sS'file'
p1192
S'Caterina-Robot-Motor.hex'
p1193
sS'path'
p1194
S'caterina-Arduino_Robot'
p1195
sS'unlock_bits'
p1196
S'0x3F'
p1197
ssS'name'
p1198
S'Arduino Robot Motor'
p1199
sS'upload'
p1200
(dp1201
S'speed'
p1202
S'57600'
p1203
sS'maximum_size'
p1204
S'28672'
p1205
sS'protocol'
p1206
S'avr109'
p1207
sS'disable_flushing'
p1208
S'true'
p1209
ssaatp1210
Rp1211
(dp1212
S'default'
p1213
S'uno'
p1214
sbtp1215
a(S'cxx'
p1216
S'/Applications/Arduino.app/Contents/Resources/Java/hardware/tools/avr/bin/avr-g++'
p1217
tp1218
a.