(lp0
(S'cppflags'
p1
ccopy_reg
_reconstructor
p2
(cino.utils
SpaceList
p3
c__builtin__
list
p4
(lp5
S'-mmcu=atmega328p'
p6
aS'-DF_CPU=16000000L'
p7
aS'-DARDUINO=105'
p8
aS'-I/Applications/Arduino.app/Contents/Resources/Java/hardware/arduino/cores/arduino'
p9
aS'-ffunction-sections'
p10
aS'-fdata-sections'
p11
aS'-g'
p12
aS'-Os'
p13
aS'-w'
p14
aS'-I/Applications/Arduino.app/Contents/Resources/Java/hardware/arduino/variants/standard'
p15
atp16
Rp17
tp18
a(S'version.txt'
p19
S'/Applications/Arduino.app/Contents/Resources/Java/lib/version.txt'
p20
tp21
a(S'cc'
p22
S'/Applications/Arduino.app/Contents/Resources/Java/hardware/tools/avr/bin/avr-gcc'
p23
tp24
a(S'make'
p25
S'/Applications/Arduino.app/Contents/Resources/Java/hardware/tools/avr/bin/make'
p26
tp27
a(S'build_dir'
p28
S'.build/uno'
p29
tp30
a(S'arduino_core_dir'
p31
S'/Applications/Arduino.app/Contents/Resources/Java/hardware/arduino/cores/arduino'
p32
tp33
a(S'boards.txt'
p34
S'/Applications/Arduino.app/Contents/Resources/Java/hardware/arduino/boards.txt'
p35
tp36
a(S'cxxflags'
p37
g2
(g3
g4
(lp38
S'-fno-exceptions'
p39
atp40
Rp41
tp42
a(S'arduino_variants_dir'
p43
S'/Applications/Arduino.app/Contents/Resources/Java/hardware/arduino/variants'
p44
tp45
a(S'deps'
p46
g2
(g3
g4
(lp47
S'.build/uno/src/dependencies.d'
p48
aS'.build/uno/arduino/dependencies.d'
p49
aS'.build/uno/Robot_Control/dependencies.d'
p50
aS'.build/uno/ITDB02_Touch/dependencies.d'
p51
aS'.build/uno/RTClib/dependencies.d'
p52
atp53
Rp54
tp55
a(S'ar'
p56
S'/Applications/Arduino.app/Contents/Resources/Java/hardware/tools/avr/bin/avr-ar'
p57
tp58
a(S'names'
p59
(dp60
S'cpp'
p61
S'%s.cpp'
p62
sS'obj'
p63
S'%s.o'
p64
sg46
S'%s.d'
p65
sS'lib'
p66
S'lib%s.a'
p67
stp68
a(S'cflags'
p69
g2
(g3
g4
(lp70
tp71
Rp72
tp73
a(S'ldflags'
p74
g2
(g3
g4
(lp75
g6
aS'-Wl,-Os'
p76
aS'-Wl,--gc-sections'
p77
atp78
Rp79
tp80
a(S'arduino_libraries_dir'
p81
S'/Applications/Arduino.app/Contents/Resources/Java/libraries'
p82
tp83
a(S'arduino_lib_version'
p84
g2
(cino.environment
Version
p85
c__builtin__
tuple
p86
(I1
I0
I5
tp87
tp88
Rp89
tp90
a(S'objcopy'
p91
S'/Applications/Arduino.app/Contents/Resources/Java/hardware/tools/avr/bin/avr-objcopy'
p92
tp93
a(S'board_models'
p94
cino.environment
BoardModels
p95
((lp96
(lp97
S'uno'
p98
a(dp99
S'build'
p100
(dp101
S'core'
p102
S'arduino'
p103
sS'mcu'
p104
S'atmega328p'
p105
sS'f_cpu'
p106
S'16000000L'
p107
sS'variant'
p108
S'standard'
p109
ssS'bootloader'
p110
(dp111
S'extended_fuses'
p112
S'0x05'
p113
sS'high_fuses'
p114
S'0xde'
p115
sS'low_fuses'
p116
S'0xff'
p117
sS'lock_bits'
p118
S'0x0F'
p119
sS'file'
p120
S'optiboot_atmega328.hex'
p121
sS'path'
p122
S'optiboot'
p123
sS'unlock_bits'
p124
S'0x3F'
p125
ssS'name'
p126
S'Arduino Uno'
p127
sS'upload'
p128
(dp129
S'speed'
p130
S'115200'
p131
sS'maximum_size'
p132
S'32256'
p133
sS'protocol'
p134
S'arduino'
p135
ssaa(lp136
S'atmega328'
p137
a(dp138
S'build'
p139
(dp140
S'core'
p141
S'arduino'
p142
sS'mcu'
p143
S'atmega328p'
p144
sS'f_cpu'
p145
S'16000000L'
p146
sS'variant'
p147
S'standard'
p148
ssS'bootloader'
p149
(dp150
S'extended_fuses'
p151
S'0x05'
p152
sS'high_fuses'
p153
S'0xDA'
p154
sS'low_fuses'
p155
S'0xFF'
p156
sS'lock_bits'
p157
S'0x0F'
p158
sS'file'
p159
S'ATmegaBOOT_168_atmega328.hex'
p160
sS'path'
p161
S'atmega'
p162
sS'unlock_bits'
p163
S'0x3F'
p164
ssS'name'
p165
S'Arduino Duemilanove w/ ATmega328'
p166
sS'upload'
p167
(dp168
S'speed'
p169
S'57600'
p170
sS'maximum_size'
p171
S'30720'
p172
sS'protocol'
p173
S'arduino'
p174
ssaa(lp175
S'diecimila'
p176
a(dp177
S'build'
p178
(dp179
S'core'
p180
S'arduino'
p181
sS'mcu'
p182
S'atmega168'
p183
sS'f_cpu'
p184
S'16000000L'
p185
sS'variant'
p186
S'standard'
p187
ssS'bootloader'
p188
(dp189
S'extended_fuses'
p190
S'0x00'
p191
sS'high_fuses'
p192
S'0xdd'
p193
sS'low_fuses'
p194
S'0xff'
p195
sS'lock_bits'
p196
S'0x0F'
p197
sS'file'
p198
S'ATmegaBOOT_168_diecimila.hex'
p199
sS'path'
p200
S'atmega'
p201
sS'unlock_bits'
p202
S'0x3F'
p203
ssS'name'
p204
S'Arduino Diecimila or Duemilanove w/ ATmega168'
p205
sS'upload'
p206
(dp207
S'speed'
p208
S'19200'
p209
sS'maximum_size'
p210
S'14336'
p211
sS'protocol'
p212
S'arduino'
p213
ssaa(lp214
S'nano328'
p215
a(dp216
S'build'
p217
(dp218
S'core'
p219
S'arduino'
p220
sS'mcu'
p221
S'atmega328p'
p222
sS'f_cpu'
p223
S'16000000L'
p224
sS'variant'
p225
S'eightanaloginputs'
p226
ssS'bootloader'
p227
(dp228
S'extended_fuses'
p229
S'0x05'
p230
sS'high_fuses'
p231
S'0xDA'
p232
sS'low_fuses'
p233
S'0xFF'
p234
sS'lock_bits'
p235
S'0x0F'
p236
sS'file'
p237
S'ATmegaBOOT_168_atmega328.hex'
p238
sS'path'
p239
S'atmega'
p240
sS'unlock_bits'
p241
S'0x3F'
p242
ssS'name'
p243
S'Arduino Nano w/ ATmega328'
p244
sS'upload'
p245
(dp246
S'speed'
p247
S'57600'
p248
sS'maximum_size'
p249
S'30720'
p250
sS'protocol'
p251
S'arduino'
p252
ssaa(lp253
S'nano'
p254
a(dp255
S'build'
p256
(dp257
S'core'
p258
S'arduino'
p259
sS'mcu'
p260
S'atmega168'
p261
sS'f_cpu'
p262
S'16000000L'
p263
sS'variant'
p264
S'eightanaloginputs'
p265
ssS'bootloader'
p266
(dp267
S'extended_fuses'
p268
S'0x00'
p269
sS'high_fuses'
p270
S'0xdd'
p271
sS'low_fuses'
p272
S'0xff'
p273
sS'lock_bits'
p274
S'0x0F'
p275
sS'file'
p276
S'ATmegaBOOT_168_diecimila.hex'
p277
sS'path'
p278
S'atmega'
p279
sS'unlock_bits'
p280
S'0x3F'
p281
ssS'name'
p282
S'Arduino Nano w/ ATmega168'
p283
sS'upload'
p284
(dp285
S'speed'
p286
S'19200'
p287
sS'maximum_size'
p288
S'14336'
p289
sS'protocol'
p290
S'arduino'
p291
ssaa(lp292
S'mega2560'
p293
a(dp294
S'build'
p295
(dp296
S'core'
p297
S'arduino'
p298
sS'mcu'
p299
S'atmega2560'
p300
sS'f_cpu'
p301
S'16000000L'
p302
sS'variant'
p303
S'mega'
p304
ssS'bootloader'
p305
(dp306
S'extended_fuses'
p307
S'0xFD'
p308
sS'high_fuses'
p309
S'0xD8'
p310
sS'low_fuses'
p311
S'0xFF'
p312
sS'lock_bits'
p313
S'0x0F'
p314
sS'file'
p315
S'stk500boot_v2_mega2560.hex'
p316
sS'path'
p317
S'stk500v2'
p318
sS'unlock_bits'
p319
S'0x3F'
p320
ssS'name'
p321
S'Arduino Mega 2560 or Mega ADK'
p322
sS'upload'
p323
(dp324
S'speed'
p325
S'115200'
p326
sS'maximum_size'
p327
S'258048'
p328
sS'protocol'
p329
S'wiring'
p330
ssaa(lp331
S'mega'
p332
a(dp333
S'build'
p334
(dp335
S'core'
p336
S'arduino'
p337
sS'mcu'
p338
S'atmega1280'
p339
sS'f_cpu'
p340
S'16000000L'
p341
sS'variant'
p342
S'mega'
p343
ssS'bootloader'
p344
(dp345
S'extended_fuses'
p346
S'0xF5'
p347
sS'high_fuses'
p348
S'0xDA'
p349
sS'low_fuses'
p350
S'0xFF'
p351
sS'lock_bits'
p352
S'0x0F'
p353
sS'file'
p354
S'ATmegaBOOT_168_atmega1280.hex'
p355
sS'path'
p356
S'atmega'
p357
sS'unlock_bits'
p358
S'0x3F'
p359
ssS'name'
p360
S'Arduino Mega (ATmega1280)'
p361
sS'upload'
p362
(dp363
S'speed'
p364
S'57600'
p365
sS'maximum_size'
p366
S'126976'
p367
sS'protocol'
p368
S'arduino'
p369
ssaa(lp370
S'leonardo'
p371
a(dp372
S'build'
p373
(dp374
S'core'
p375
S'arduino'
p376
sS'f_cpu'
p377
S'16000000L'
p378
sS'vid'
p379
S'0x2341'
p380
sS'pid'
p381
S'0x8036'
p382
sS'variant'
p383
S'leonardo'
p384
sS'mcu'
p385
S'atmega32u4'
p386
ssS'bootloader'
p387
(dp388
S'extended_fuses'
p389
S'0xcb'
p390
sS'high_fuses'
p391
S'0xd8'
p392
sS'low_fuses'
p393
S'0xff'
p394
sS'lock_bits'
p395
S'0x2F'
p396
sS'file'
p397
S'Caterina-Leonardo.hex'
p398
sS'path'
p399
S'caterina'
p400
sS'unlock_bits'
p401
S'0x3F'
p402
ssS'name'
p403
S'Arduino Leonardo'
p404
sS'upload'
p405
(dp406
S'speed'
p407
S'57600'
p408
sS'maximum_size'
p409
S'28672'
p410
sS'protocol'
p411
S'avr109'
p412
sS'disable_flushing'
p413
S'true'
p414
ssaa(lp415
S'esplora'
p416
a(dp417
S'build'
p418
(dp419
S'core'
p420
S'arduino'
p421
sS'f_cpu'
p422
S'16000000L'
p423
sS'vid'
p424
S'0x2341'
p425
sS'pid'
p426
S'0x803C'
p427
sS'variant'
p428
S'leonardo'
p429
sS'mcu'
p430
S'atmega32u4'
p431
ssS'bootloader'
p432
(dp433
S'extended_fuses'
p434
S'0xcb'
p435
sS'high_fuses'
p436
S'0xd8'
p437
sS'low_fuses'
p438
S'0xff'
p439
sS'lock_bits'
p440
S'0x2F'
p441
sS'file'
p442
S'Caterina-Esplora.hex'
p443
sS'path'
p444
S'caterina'
p445
sS'unlock_bits'
p446
S'0x3F'
p447
ssS'name'
p448
S'Arduino Esplora'
p449
sS'upload'
p450
(dp451
S'speed'
p452
S'57600'
p453
sS'maximum_size'
p454
S'28672'
p455
sS'protocol'
p456
S'avr109'
p457
sS'disable_flushing'
p458
S'true'
p459
ssaa(lp460
S'micro'
p461
a(dp462
S'build'
p463
(dp464
S'core'
p465
S'arduino'
p466
sS'f_cpu'
p467
S'16000000L'
p468
sS'vid'
p469
S'0x2341'
p470
sS'pid'
p471
S'0x8037'
p472
sS'variant'
p473
S'micro'
p474
sS'mcu'
p475
S'atmega32u4'
p476
ssS'bootloader'
p477
(dp478
S'extended_fuses'
p479
S'0xcb'
p480
sS'high_fuses'
p481
S'0xd8'
p482
sS'low_fuses'
p483
S'0xff'
p484
sS'lock_bits'
p485
S'0x2F'
p486
sS'file'
p487
S'Caterina-Micro.hex'
p488
sS'path'
p489
S'caterina'
p490
sS'unlock_bits'
p491
S'0x3F'
p492
ssS'name'
p493
S'Arduino Micro'
p494
sS'upload'
p495
(dp496
S'speed'
p497
S'57600'
p498
sS'maximum_size'
p499
S'28672'
p500
sS'protocol'
p501
S'avr109'
p502
sS'disable_flushing'
p503
S'true'
p504
ssaa(lp505
S'mini328'
p506
a(dp507
S'build'
p508
(dp509
S'core'
p510
S'arduino'
p511
sS'mcu'
p512
S'atmega328p'
p513
sS'f_cpu'
p514
S'16000000L'
p515
sS'variant'
p516
S'eightanaloginputs'
p517
ssS'bootloader'
p518
(dp519
S'extended_fuses'
p520
S'0x05'
p521
sS'high_fuses'
p522
S'0xd8'
p523
sS'low_fuses'
p524
S'0xff'
p525
sS'lock_bits'
p526
S'0x0F'
p527
sS'file'
p528
S'optiboot_atmega328-Mini.hex'
p529
sS'path'
p530
S'optiboot'
p531
sS'unlock_bits'
p532
S'0x3F'
p533
ssS'name'
p534
S'Arduino Mini w/ ATmega328'
p535
sS'upload'
p536
(dp537
S'speed'
p538
S'115200'
p539
sS'maximum_size'
p540
S'28672'
p541
sS'protocol'
p542
S'arduino'
p543
ssaa(lp544
S'mini'
p545
a(dp546
S'build'
p547
(dp548
S'core'
p549
S'arduino'
p550
sS'mcu'
p551
S'atmega168'
p552
sS'f_cpu'
p553
S'16000000L'
p554
sS'variant'
p555
S'eightanaloginputs'
p556
ssS'bootloader'
p557
(dp558
S'extended_fuses'
p559
S'0x00'
p560
sS'high_fuses'
p561
S'0xdd'
p562
sS'low_fuses'
p563
S'0xff'
p564
sS'lock_bits'
p565
S'0x0F'
p566
sS'file'
p567
S'ATmegaBOOT_168_ng.hex'
p568
sS'path'
p569
S'atmega'
p570
sS'unlock_bits'
p571
S'0x3F'
p572
ssS'name'
p573
S'Arduino Mini w/ ATmega168'
p574
sS'upload'
p575
(dp576
S'speed'
p577
S'19200'
p578
sS'maximum_size'
p579
S'14336'
p580
sS'protocol'
p581
S'arduino'
p582
ssaa(lp583
S'ethernet'
p584
a(dp585
S'build'
p586
(dp587
S'f_cpu'
p588
S'16000000L'
p589
sS'mcu'
p590
S'atmega328p'
p591
sS'variant'
p592
S'standard'
p593
sS'core'
p594
S'arduino'
p595
ssS'bootloader'
p596
(dp597
S'extended_fuses'
p598
S'0x05'
p599
sS'high_fuses'
p600
S'0xde'
p601
sS'low_fuses'
p602
S'0xff'
p603
sS'lock_bits'
p604
S'0x0F'
p605
sS'file'
p606
S'optiboot_atmega328.hex'
p607
sS'path'
p608
S'optiboot'
p609
sS'unlock_bits'
p610
S'0x3F'
p611
ssS'name'
p612
S'Arduino Ethernet'
p613
sS'upload'
p614
(dp615
S'speed'
p616
S'115200'
p617
sS'maximum_size'
p618
S'32256'
p619
sS'protocol'
p620
S'arduino'
p621
ssaa(lp622
S'fio'
p623
a(dp624
S'build'
p625
(dp626
S'core'
p627
S'arduino'
p628
sS'mcu'
p629
S'atmega328p'
p630
sS'f_cpu'
p631
S'8000000L'
p632
sS'variant'
p633
S'eightanaloginputs'
p634
ssS'bootloader'
p635
(dp636
S'extended_fuses'
p637
S'0x05'
p638
sS'high_fuses'
p639
S'0xDA'
p640
sS'low_fuses'
p641
S'0xFF'
p642
sS'lock_bits'
p643
S'0x0F'
p644
sS'file'
p645
S'ATmegaBOOT_168_atmega328_pro_8MHz.hex'
p646
sS'path'
p647
S'arduino:atmega'
p648
sS'unlock_bits'
p649
S'0x3F'
p650
ssS'name'
p651
S'Arduino Fio'
p652
sS'upload'
p653
(dp654
S'speed'
p655
S'57600'
p656
sS'maximum_size'
p657
S'30720'
p658
sS'protocol'
p659
S'arduino'
p660
ssaa(lp661
S'bt328'
p662
a(dp663
S'build'
p664
(dp665
S'core'
p666
S'arduino'
p667
sS'mcu'
p668
S'atmega328p'
p669
sS'f_cpu'
p670
S'16000000L'
p671
sS'variant'
p672
S'eightanaloginputs'
p673
ssS'bootloader'
p674
(dp675
S'extended_fuses'
p676
S'0x05'
p677
sS'high_fuses'
p678
S'0xd8'
p679
sS'low_fuses'
p680
S'0xff'
p681
sS'lock_bits'
p682
S'0x0F'
p683
sS'file'
p684
S'ATmegaBOOT_168_atmega328_bt.hex'
p685
sS'path'
p686
S'bt'
p687
sS'unlock_bits'
p688
S'0x3F'
p689
ssS'name'
p690
S'Arduino BT w/ ATmega328'
p691
sS'upload'
p692
(dp693
S'speed'
p694
S'19200'
p695
sS'maximum_size'
p696
S'28672'
p697
sS'protocol'
p698
S'arduino'
p699
sS'disable_flushing'
p700
S'true'
p701
ssaa(lp702
S'bt'
p703
a(dp704
S'build'
p705
(dp706
S'core'
p707
S'arduino'
p708
sS'mcu'
p709
S'atmega168'
p710
sS'f_cpu'
p711
S'16000000L'
p712
sS'variant'
p713
S'eightanaloginputs'
p714
ssS'bootloader'
p715
(dp716
S'extended_fuses'
p717
S'0x00'
p718
sS'high_fuses'
p719
S'0xdd'
p720
sS'low_fuses'
p721
S'0xff'
p722
sS'lock_bits'
p723
S'0x0F'
p724
sS'file'
p725
S'ATmegaBOOT_168.hex'
p726
sS'path'
p727
S'bt'
p728
sS'unlock_bits'
p729
S'0x3F'
p730
ssS'name'
p731
S'Arduino BT w/ ATmega168'
p732
sS'upload'
p733
(dp734
S'speed'
p735
S'19200'
p736
sS'maximum_size'
p737
S'14336'
p738
sS'protocol'
p739
S'arduino'
p740
sS'disable_flushing'
p741
S'true'
p742
ssaa(lp743
S'LilyPadUSB'
p744
a(dp745
S'build'
p746
(dp747
S'core'
p748
S'arduino'
p749
sS'f_cpu'
p750
S'8000000L'
p751
sS'vid'
p752
S'0x1B4F'
p753
sS'pid'
p754
S'0x9208'
p755
sS'variant'
p756
S'leonardo'
p757
sS'mcu'
p758
S'atmega32u4'
p759
ssS'bootloader'
p760
(dp761
S'extended_fuses'
p762
S'0xce'
p763
sS'high_fuses'
p764
S'0xd8'
p765
sS'low_fuses'
p766
S'0xff'
p767
sS'lock_bits'
p768
S'0x2F'
p769
sS'file'
p770
S'Caterina-LilyPadUSB.hex'
p771
sS'path'
p772
S'caterina-LilyPadUSB'
p773
sS'unlock_bits'
p774
S'0x3F'
p775
ssS'name'
p776
S'LilyPad Arduino USB'
p777
sS'upload'
p778
(dp779
S'speed'
p780
S'57600'
p781
sS'maximum_size'
p782
S'28672'
p783
sS'protocol'
p784
S'avr109'
p785
sS'disable_flushing'
p786
S'true'
p787
ssaa(lp788
S'lilypad328'
p789
a(dp790
S'build'
p791
(dp792
S'core'
p793
S'arduino'
p794
sS'mcu'
p795
S'atmega328p'
p796
sS'f_cpu'
p797
S'8000000L'
p798
sS'variant'
p799
S'standard'
p800
ssS'bootloader'
p801
(dp802
S'extended_fuses'
p803
S'0x05'
p804
sS'high_fuses'
p805
S'0xDA'
p806
sS'low_fuses'
p807
S'0xFF'
p808
sS'lock_bits'
p809
S'0x0F'
p810
sS'file'
p811
S'ATmegaBOOT_168_atmega328_pro_8MHz.hex'
p812
sS'path'
p813
S'atmega'
p814
sS'unlock_bits'
p815
S'0x3F'
p816
ssS'name'
p817
S'LilyPad Arduino w/ ATmega328'
p818
sS'upload'
p819
(dp820
S'speed'
p821
S'57600'
p822
sS'maximum_size'
p823
S'30720'
p824
sS'protocol'
p825
S'arduino'
p826
ssaa(lp827
S'lilypad'
p828
a(dp829
S'build'
p830
(dp831
S'core'
p832
S'arduino'
p833
sS'mcu'
p834
S'atmega168'
p835
sS'f_cpu'
p836
S'8000000L'
p837
sS'variant'
p838
S'standard'
p839
ssS'bootloader'
p840
(dp841
S'extended_fuses'
p842
S'0x00'
p843
sS'high_fuses'
p844
S'0xdd'
p845
sS'low_fuses'
p846
S'0xe2'
p847
sS'lock_bits'
p848
S'0x0F'
p849
sS'file'
p850
S'LilyPadBOOT_168.hex'
p851
sS'path'
p852
S'lilypad'
p853
sS'unlock_bits'
p854
S'0x3F'
p855
ssS'name'
p856
S'LilyPad Arduino w/ ATmega168'
p857
sS'upload'
p858
(dp859
S'speed'
p860
S'19200'
p861
sS'maximum_size'
p862
S'14336'
p863
sS'protocol'
p864
S'arduino'
p865
ssaa(lp866
S'pro5v328'
p867
a(dp868
S'build'
p869
(dp870
S'core'
p871
S'arduino'
p872
sS'mcu'
p873
S'atmega328p'
p874
sS'f_cpu'
p875
S'16000000L'
p876
sS'variant'
p877
S'standard'
p878
ssS'bootloader'
p879
(dp880
S'extended_fuses'
p881
S'0x05'
p882
sS'high_fuses'
p883
S'0xDA'
p884
sS'low_fuses'
p885
S'0xFF'
p886
sS'lock_bits'
p887
S'0x0F'
p888
sS'file'
p889
S'ATmegaBOOT_168_atmega328.hex'
p890
sS'path'
p891
S'atmega'
p892
sS'unlock_bits'
p893
S'0x3F'
p894
ssS'name'
p895
S'Arduino Pro or Pro Mini (5V, 16 MHz) w/ ATmega328'
p896
sS'upload'
p897
(dp898
S'speed'
p899
S'57600'
p900
sS'maximum_size'
p901
S'30720'
p902
sS'protocol'
p903
S'arduino'
p904
ssaa(lp905
S'pro5v'
p906
a(dp907
S'build'
p908
(dp909
S'core'
p910
S'arduino'
p911
sS'mcu'
p912
S'atmega168'
p913
sS'f_cpu'
p914
S'16000000L'
p915
sS'variant'
p916
S'standard'
p917
ssS'bootloader'
p918
(dp919
S'extended_fuses'
p920
S'0x00'
p921
sS'high_fuses'
p922
S'0xdd'
p923
sS'low_fuses'
p924
S'0xff'
p925
sS'lock_bits'
p926
S'0x0F'
p927
sS'file'
p928
S'ATmegaBOOT_168_diecimila.hex'
p929
sS'path'
p930
S'atmega'
p931
sS'unlock_bits'
p932
S'0x3F'
p933
ssS'name'
p934
S'Arduino Pro or Pro Mini (5V, 16 MHz) w/ ATmega168'
p935
sS'upload'
p936
(dp937
S'speed'
p938
S'19200'
p939
sS'maximum_size'
p940
S'14336'
p941
sS'protocol'
p942
S'arduino'
p943
ssaa(lp944
S'pro328'
p945
a(dp946
S'build'
p947
(dp948
S'core'
p949
S'arduino'
p950
sS'mcu'
p951
S'atmega328p'
p952
sS'f_cpu'
p953
S'8000000L'
p954
sS'variant'
p955
S'standard'
p956
ssS'bootloader'
p957
(dp958
S'extended_fuses'
p959
S'0x05'
p960
sS'high_fuses'
p961
S'0xDA'
p962
sS'low_fuses'
p963
S'0xFF'
p964
sS'lock_bits'
p965
S'0x0F'
p966
sS'file'
p967
S'ATmegaBOOT_168_atmega328_pro_8MHz.hex'
p968
sS'path'
p969
S'atmega'
p970
sS'unlock_bits'
p971
S'0x3F'
p972
ssS'name'
p973
S'Arduino Pro or Pro Mini (3.3V, 8 MHz) w/ ATmega328'
p974
sS'upload'
p975
(dp976
S'speed'
p977
S'57600'
p978
sS'maximum_size'
p979
S'30720'
p980
sS'protocol'
p981
S'arduino'
p982
ssaa(lp983
S'pro'
p984
a(dp985
S'build'
p986
(dp987
S'core'
p988
S'arduino'
p989
sS'mcu'
p990
S'atmega168'
p991
sS'f_cpu'
p992
S'8000000L'
p993
sS'variant'
p994
S'standard'
p995
ssS'bootloader'
p996
(dp997
S'extended_fuses'
p998
S'0x00'
p999
sS'high_fuses'
p1000
S'0xdd'
p1001
sS'low_fuses'
p1002
S'0xc6'
p1003
sS'lock_bits'
p1004
S'0x0F'
p1005
sS'file'
p1006
S'ATmegaBOOT_168_pro_8MHz.hex'
p1007
sS'path'
p1008
S'atmega'
p1009
sS'unlock_bits'
p1010
S'0x3F'
p1011
ssS'name'
p1012
S'Arduino Pro or Pro Mini (3.3V, 8 MHz) w/ ATmega168'
p1013
sS'upload'
p1014
(dp1015
S'speed'
p1016
S'19200'
p1017
sS'maximum_size'
p1018
S'14336'
p1019
sS'protocol'
p1020
S'arduino'
p1021
ssaa(lp1022
S'atmega168'
p1023
a(dp1024
S'build'
p1025
(dp1026
S'core'
p1027
S'arduino'
p1028
sS'mcu'
p1029
S'atmega168'
p1030
sS'f_cpu'
p1031
S'16000000L'
p1032
sS'variant'
p1033
S'standard'
p1034
ssS'bootloader'
p1035
(dp1036
S'extended_fuses'
p1037
S'0x00'
p1038
sS'high_fuses'
p1039
S'0xdd'
p1040
sS'low_fuses'
p1041
S'0xff'
p1042
sS'lock_bits'
p1043
S'0x0F'
p1044
sS'file'
p1045
S'ATmegaBOOT_168_ng.hex'
p1046
sS'path'
p1047
S'atmega'
p1048
sS'unlock_bits'
p1049
S'0x3F'
p1050
ssS'name'
p1051
S'Arduino NG or older w/ ATmega168'
p1052
sS'upload'
p1053
(dp1054
S'speed'
p1055
S'19200'
p1056
sS'maximum_size'
p1057
S'14336'
p1058
sS'protocol'
p1059
S'arduino'
p1060
ssaa(lp1061
S'atmega8'
p1062
a(dp1063
S'build'
p1064
(dp1065
S'core'
p1066
S'arduino'
p1067
sS'mcu'
p1068
S'atmega8'
p1069
sS'f_cpu'
p1070
S'16000000L'
p1071
sS'variant'
p1072
S'standard'
p1073
ssS'bootloader'
p1074
(dp1075
S'high_fuses'
p1076
S'0xca'
p1077
sS'low_fuses'
p1078
S'0xdf'
p1079
sS'lock_bits'
p1080
S'0x0F'
p1081
sS'file'
p1082
S'ATmegaBOOT-prod-firmware-2009-11-07.hex'
p1083
sS'path'
p1084
S'atmega8'
p1085
sS'unlock_bits'
p1086
S'0x3F'
p1087
ssS'name'
p1088
S'Arduino NG or older w/ ATmega8'
p1089
sS'upload'
p1090
(dp1091
S'speed'
p1092
S'19200'
p1093
sS'maximum_size'
p1094
S'7168'
p1095
sS'protocol'
p1096
S'arduino'
p1097
ssaa(lp1098
S'robotControl'
p1099
a(dp1100
S'build'
p1101
(dp1102
S'core'
p1103
S'robot'
p1104
sS'f_cpu'
p1105
S'16000000L'
p1106
sS'vid'
p1107
S'0x2341'
p1108
sS'pid'
p1109
S'0x8038'
p1110
sS'variant'
p1111
S'robot_control'
p1112
sS'mcu'
p1113
S'atmega32u4'
p1114
ssS'bootloader'
p1115
(dp1116
S'extended_fuses'
p1117
S'0xcb'
p1118
sS'high_fuses'
p1119
S'0xd8'
p1120
sS'low_fuses'
p1121
S'0xff'
p1122
sS'lock_bits'
p1123
S'0x2F'
p1124
sS'file'
p1125
S'Caterina-Robot-Control.hex'
p1126
sS'path'
p1127
S'caterina-Arduino_Robot'
p1128
sS'unlock_bits'
p1129
S'0x3F'
p1130
ssS'name'
p1131
S'Arduino Robot Control'
p1132
sS'upload'
p1133
(dp1134
S'speed'
p1135
S'57600'
p1136
sS'maximum_size'
p1137
S'28672'
p1138
sS'protocol'
p1139
S'avr109'
p1140
sS'disable_flushing'
p1141
S'true'
p1142
ssaa(lp1143
S'robotMotor'
p1144
a(dp1145
S'build'
p1146
(dp1147
S'core'
p1148
S'robot'
p1149
sS'f_cpu'
p1150
S'16000000L'
p1151
sS'vid'
p1152
S'0x2341'
p1153
sS'pid'
p1154
S'0x8039'
p1155
sS'variant'
p1156
S'robot_motor'
p1157
sS'mcu'
p1158
S'atmega32u4'
p1159
ssS'bootloader'
p1160
(dp1161
S'extended_fuses'
p1162
S'0xcb'
p1163
sS'high_fuses'
p1164
S'0xd8'
p1165
sS'low_fuses'
p1166
S'0xff'
p1167
sS'lock_bits'
p1168
S'0x2F'
p1169
sS'file'
p1170
S'Caterina-Robot-Motor.hex'
p1171
sS'path'
p1172
S'caterina-Arduino_Robot'
p1173
sS'unlock_bits'
p1174
S'0x3F'
p1175
ssS'name'
p1176
S'Arduino Robot Motor'
p1177
sS'upload'
p1178
(dp1179
S'speed'
p1180
S'57600'
p1181
sS'maximum_size'
p1182
S'28672'
p1183
sS'protocol'
p1184
S'avr109'
p1185
sS'disable_flushing'
p1186
S'true'
p1187
ssaatp1188
Rp1189
(dp1190
S'default'
p1191
S'uno'
p1192
sbtp1193
a(S'cxx'
p1194
S'/Applications/Arduino.app/Contents/Resources/Java/hardware/tools/avr/bin/avr-g++'
p1195
tp1196
a.