(lp0
(S'cppflags'
p1
ccopy_reg
_reconstructor
p2
(cino.utils
SpaceList
p3
c__builtin__
list
p4
(lp5
S'-mmcu=atmega2560'
p6
aS'-DF_CPU=16000000L'
p7
aS'-DARDUINO=105'
p8
aS'-I/Applications/Arduino.app/Contents/Resources/Java/hardware/arduino/cores/arduino'
p9
aS'-ffunction-sections'
p10
aS'-fdata-sections'
p11
aS'-g'
p12
aS'-Os'
p13
aS'-w'
p14
aS'-I/Applications/Arduino.app/Contents/Resources/Java/hardware/arduino/variants/mega'
p15
aS'-Ilib/OneWire'
p16
aS'-Ilib/RTClib'
p17
aS'-Ilib/EEPROMEx'
p18
aS'-Ilib/EEPROMEx/Examples'
p19
aS'-Ilib/EEPROMEx/Examples/EEPROMEx'
p20
aS'-Ilib/EEPROMEx/Examples/EEPROMVar'
p21
aS'-Ilib/SD'
p22
aS'-Ilib/SD/utility'
p23
aS'-Ilib/Wire'
p24
aS'-Ilib/Wire/utility'
p25
aS'-I/Applications/Arduino.app/Contents/Resources/Java/hardware/arduino/cores/arduino'
p26
aS'-I/Applications/Arduino.app/Contents/Resources/Java/hardware/arduino/cores/arduino/avr-libc'
p27
atp28
Rp29
tp30
a(S'cxx'
p31
S'/Applications/Arduino.app/Contents/Resources/Java/hardware/tools/avr/bin/avr-g++'
p32
tp33
a(S'arduino_libraries_dir'
p34
S'/Applications/Arduino.app/Contents/Resources/Java/libraries'
p35
tp36
a(S'avrdude'
p37
S'/Applications/Arduino.app/Contents/Resources/Java/hardware/tools/avr/bin/avrdude'
p38
tp39
a(S'ar'
p40
S'/Applications/Arduino.app/Contents/Resources/Java/hardware/tools/avr/bin/avr-ar'
p41
tp42
a(S'names'
p43
(dp44
S'cpp'
p45
S'%s.cpp'
p46
sS'obj'
p47
S'%s.o'
p48
sS'lib'
p49
S'lib%s.a'
p50
sS'deps'
p51
S'%s.d'
p52
stp53
a(S'ldflags'
p54
g2
(g3
g4
(lp55
g6
aS'-Wl,-Os'
p56
aS'-Wl,--gc-sections'
p57
atp58
Rp59
tp60
a(S'arduino_lib_version'
p61
g2
(cino.environment
Version
p62
c__builtin__
tuple
p63
(I1
I0
I5
tp64
tp65
Rp66
tp67
a(S'objcopy'
p68
S'/Applications/Arduino.app/Contents/Resources/Java/hardware/tools/avr/bin/avr-objcopy'
p69
tp70
a(S'board_models'
p71
cino.environment
BoardModels
p72
((lp73
(lp74
S'uno'
p75
a(dp76
S'build'
p77
(dp78
S'core'
p79
S'arduino'
p80
sS'mcu'
p81
S'atmega328p'
p82
sS'f_cpu'
p83
S'16000000L'
p84
sS'variant'
p85
S'standard'
p86
ssS'bootloader'
p87
(dp88
S'extended_fuses'
p89
S'0x05'
p90
sS'high_fuses'
p91
S'0xde'
p92
sS'low_fuses'
p93
S'0xff'
p94
sS'lock_bits'
p95
S'0x0F'
p96
sS'file'
p97
S'optiboot_atmega328.hex'
p98
sS'path'
p99
S'optiboot'
p100
sS'unlock_bits'
p101
S'0x3F'
p102
ssS'upload'
p103
(dp104
S'protocol'
p105
S'arduino'
p106
sS'maximum_size'
p107
S'32256'
p108
sS'speed'
p109
S'115200'
p110
ssS'name'
p111
S'Arduino Uno'
p112
saa(lp113
S'atmega328'
p114
a(dp115
S'build'
p116
(dp117
S'core'
p118
S'arduino'
p119
sS'mcu'
p120
S'atmega328p'
p121
sS'f_cpu'
p122
S'16000000L'
p123
sS'variant'
p124
S'standard'
p125
ssS'bootloader'
p126
(dp127
S'extended_fuses'
p128
S'0x05'
p129
sS'high_fuses'
p130
S'0xDA'
p131
sS'low_fuses'
p132
S'0xFF'
p133
sS'lock_bits'
p134
S'0x0F'
p135
sS'file'
p136
S'ATmegaBOOT_168_atmega328.hex'
p137
sS'path'
p138
S'atmega'
p139
sS'unlock_bits'
p140
S'0x3F'
p141
ssS'upload'
p142
(dp143
S'protocol'
p144
S'arduino'
p145
sS'maximum_size'
p146
S'30720'
p147
sS'speed'
p148
S'57600'
p149
ssS'name'
p150
S'Arduino Duemilanove w/ ATmega328'
p151
saa(lp152
S'diecimila'
p153
a(dp154
S'build'
p155
(dp156
S'core'
p157
S'arduino'
p158
sS'mcu'
p159
S'atmega168'
p160
sS'f_cpu'
p161
S'16000000L'
p162
sS'variant'
p163
S'standard'
p164
ssS'bootloader'
p165
(dp166
S'extended_fuses'
p167
S'0x00'
p168
sS'high_fuses'
p169
S'0xdd'
p170
sS'low_fuses'
p171
S'0xff'
p172
sS'lock_bits'
p173
S'0x0F'
p174
sS'file'
p175
S'ATmegaBOOT_168_diecimila.hex'
p176
sS'path'
p177
S'atmega'
p178
sS'unlock_bits'
p179
S'0x3F'
p180
ssS'upload'
p181
(dp182
S'protocol'
p183
S'arduino'
p184
sS'maximum_size'
p185
S'14336'
p186
sS'speed'
p187
S'19200'
p188
ssS'name'
p189
S'Arduino Diecimila or Duemilanove w/ ATmega168'
p190
saa(lp191
S'nano328'
p192
a(dp193
S'build'
p194
(dp195
S'core'
p196
S'arduino'
p197
sS'mcu'
p198
S'atmega328p'
p199
sS'f_cpu'
p200
S'16000000L'
p201
sS'variant'
p202
S'eightanaloginputs'
p203
ssS'bootloader'
p204
(dp205
S'extended_fuses'
p206
S'0x05'
p207
sS'high_fuses'
p208
S'0xDA'
p209
sS'low_fuses'
p210
S'0xFF'
p211
sS'lock_bits'
p212
S'0x0F'
p213
sS'file'
p214
S'ATmegaBOOT_168_atmega328.hex'
p215
sS'path'
p216
S'atmega'
p217
sS'unlock_bits'
p218
S'0x3F'
p219
ssS'upload'
p220
(dp221
S'protocol'
p222
S'arduino'
p223
sS'maximum_size'
p224
S'30720'
p225
sS'speed'
p226
S'57600'
p227
ssS'name'
p228
S'Arduino Nano w/ ATmega328'
p229
saa(lp230
S'nano'
p231
a(dp232
S'build'
p233
(dp234
S'core'
p235
S'arduino'
p236
sS'mcu'
p237
S'atmega168'
p238
sS'f_cpu'
p239
S'16000000L'
p240
sS'variant'
p241
S'eightanaloginputs'
p242
ssS'bootloader'
p243
(dp244
S'extended_fuses'
p245
S'0x00'
p246
sS'high_fuses'
p247
S'0xdd'
p248
sS'low_fuses'
p249
S'0xff'
p250
sS'lock_bits'
p251
S'0x0F'
p252
sS'file'
p253
S'ATmegaBOOT_168_diecimila.hex'
p254
sS'path'
p255
S'atmega'
p256
sS'unlock_bits'
p257
S'0x3F'
p258
ssS'upload'
p259
(dp260
S'protocol'
p261
S'arduino'
p262
sS'maximum_size'
p263
S'14336'
p264
sS'speed'
p265
S'19200'
p266
ssS'name'
p267
S'Arduino Nano w/ ATmega168'
p268
saa(lp269
S'mega2560'
p270
a(dp271
S'build'
p272
(dp273
S'core'
p274
S'arduino'
p275
sS'mcu'
p276
S'atmega2560'
p277
sS'f_cpu'
p278
S'16000000L'
p279
sS'variant'
p280
S'mega'
p281
ssS'bootloader'
p282
(dp283
S'extended_fuses'
p284
S'0xFD'
p285
sS'high_fuses'
p286
S'0xD8'
p287
sS'low_fuses'
p288
S'0xFF'
p289
sS'lock_bits'
p290
S'0x0F'
p291
sS'file'
p292
S'stk500boot_v2_mega2560.hex'
p293
sS'path'
p294
S'stk500v2'
p295
sS'unlock_bits'
p296
S'0x3F'
p297
ssS'upload'
p298
(dp299
S'protocol'
p300
S'wiring'
p301
sS'maximum_size'
p302
S'258048'
p303
sS'speed'
p304
S'115200'
p305
ssS'name'
p306
S'Arduino Mega 2560 or Mega ADK'
p307
saa(lp308
S'mega'
p309
a(dp310
S'build'
p311
(dp312
S'core'
p313
S'arduino'
p314
sS'mcu'
p315
S'atmega1280'
p316
sS'f_cpu'
p317
S'16000000L'
p318
sS'variant'
p319
S'mega'
p320
ssS'bootloader'
p321
(dp322
S'extended_fuses'
p323
S'0xF5'
p324
sS'high_fuses'
p325
S'0xDA'
p326
sS'low_fuses'
p327
S'0xFF'
p328
sS'lock_bits'
p329
S'0x0F'
p330
sS'file'
p331
S'ATmegaBOOT_168_atmega1280.hex'
p332
sS'path'
p333
S'atmega'
p334
sS'unlock_bits'
p335
S'0x3F'
p336
ssS'upload'
p337
(dp338
S'protocol'
p339
S'arduino'
p340
sS'maximum_size'
p341
S'126976'
p342
sS'speed'
p343
S'57600'
p344
ssS'name'
p345
S'Arduino Mega (ATmega1280)'
p346
saa(lp347
S'leonardo'
p348
a(dp349
S'build'
p350
(dp351
S'core'
p352
S'arduino'
p353
sS'f_cpu'
p354
S'16000000L'
p355
sS'vid'
p356
S'0x2341'
p357
sS'pid'
p358
S'0x8036'
p359
sS'variant'
p360
S'leonardo'
p361
sS'mcu'
p362
S'atmega32u4'
p363
ssS'bootloader'
p364
(dp365
S'extended_fuses'
p366
S'0xcb'
p367
sS'high_fuses'
p368
S'0xd8'
p369
sS'low_fuses'
p370
S'0xff'
p371
sS'lock_bits'
p372
S'0x2F'
p373
sS'file'
p374
S'Caterina-Leonardo.hex'
p375
sS'path'
p376
S'caterina'
p377
sS'unlock_bits'
p378
S'0x3F'
p379
ssS'upload'
p380
(dp381
S'protocol'
p382
S'avr109'
p383
sS'maximum_size'
p384
S'28672'
p385
sS'speed'
p386
S'57600'
p387
sS'disable_flushing'
p388
S'true'
p389
ssS'name'
p390
S'Arduino Leonardo'
p391
saa(lp392
S'esplora'
p393
a(dp394
S'build'
p395
(dp396
S'core'
p397
S'arduino'
p398
sS'f_cpu'
p399
S'16000000L'
p400
sS'vid'
p401
S'0x2341'
p402
sS'pid'
p403
S'0x803C'
p404
sS'variant'
p405
S'leonardo'
p406
sS'mcu'
p407
S'atmega32u4'
p408
ssS'bootloader'
p409
(dp410
S'extended_fuses'
p411
S'0xcb'
p412
sS'high_fuses'
p413
S'0xd8'
p414
sS'low_fuses'
p415
S'0xff'
p416
sS'lock_bits'
p417
S'0x2F'
p418
sS'file'
p419
S'Caterina-Esplora.hex'
p420
sS'path'
p421
S'caterina'
p422
sS'unlock_bits'
p423
S'0x3F'
p424
ssS'upload'
p425
(dp426
S'protocol'
p427
S'avr109'
p428
sS'maximum_size'
p429
S'28672'
p430
sS'speed'
p431
S'57600'
p432
sS'disable_flushing'
p433
S'true'
p434
ssS'name'
p435
S'Arduino Esplora'
p436
saa(lp437
S'micro'
p438
a(dp439
S'build'
p440
(dp441
S'core'
p442
S'arduino'
p443
sS'f_cpu'
p444
S'16000000L'
p445
sS'vid'
p446
S'0x2341'
p447
sS'pid'
p448
S'0x8037'
p449
sS'variant'
p450
S'micro'
p451
sS'mcu'
p452
S'atmega32u4'
p453
ssS'bootloader'
p454
(dp455
S'extended_fuses'
p456
S'0xcb'
p457
sS'high_fuses'
p458
S'0xd8'
p459
sS'low_fuses'
p460
S'0xff'
p461
sS'lock_bits'
p462
S'0x2F'
p463
sS'file'
p464
S'Caterina-Micro.hex'
p465
sS'path'
p466
S'caterina'
p467
sS'unlock_bits'
p468
S'0x3F'
p469
ssS'upload'
p470
(dp471
S'protocol'
p472
S'avr109'
p473
sS'maximum_size'
p474
S'28672'
p475
sS'speed'
p476
S'57600'
p477
sS'disable_flushing'
p478
S'true'
p479
ssS'name'
p480
S'Arduino Micro'
p481
saa(lp482
S'mini328'
p483
a(dp484
S'build'
p485
(dp486
S'core'
p487
S'arduino'
p488
sS'mcu'
p489
S'atmega328p'
p490
sS'f_cpu'
p491
S'16000000L'
p492
sS'variant'
p493
S'eightanaloginputs'
p494
ssS'bootloader'
p495
(dp496
S'extended_fuses'
p497
S'0x05'
p498
sS'high_fuses'
p499
S'0xd8'
p500
sS'low_fuses'
p501
S'0xff'
p502
sS'lock_bits'
p503
S'0x0F'
p504
sS'file'
p505
S'optiboot_atmega328-Mini.hex'
p506
sS'path'
p507
S'optiboot'
p508
sS'unlock_bits'
p509
S'0x3F'
p510
ssS'upload'
p511
(dp512
S'protocol'
p513
S'arduino'
p514
sS'maximum_size'
p515
S'28672'
p516
sS'speed'
p517
S'115200'
p518
ssS'name'
p519
S'Arduino Mini w/ ATmega328'
p520
saa(lp521
S'mini'
p522
a(dp523
S'build'
p524
(dp525
S'core'
p526
S'arduino'
p527
sS'mcu'
p528
S'atmega168'
p529
sS'f_cpu'
p530
S'16000000L'
p531
sS'variant'
p532
S'eightanaloginputs'
p533
ssS'bootloader'
p534
(dp535
S'extended_fuses'
p536
S'0x00'
p537
sS'high_fuses'
p538
S'0xdd'
p539
sS'low_fuses'
p540
S'0xff'
p541
sS'lock_bits'
p542
S'0x0F'
p543
sS'file'
p544
S'ATmegaBOOT_168_ng.hex'
p545
sS'path'
p546
S'atmega'
p547
sS'unlock_bits'
p548
S'0x3F'
p549
ssS'upload'
p550
(dp551
S'protocol'
p552
S'arduino'
p553
sS'maximum_size'
p554
S'14336'
p555
sS'speed'
p556
S'19200'
p557
ssS'name'
p558
S'Arduino Mini w/ ATmega168'
p559
saa(lp560
S'ethernet'
p561
a(dp562
S'build'
p563
(dp564
S'variant'
p565
S'standard'
p566
sS'mcu'
p567
S'atmega328p'
p568
sS'f_cpu'
p569
S'16000000L'
p570
sS'core'
p571
S'arduino'
p572
ssS'bootloader'
p573
(dp574
S'extended_fuses'
p575
S'0x05'
p576
sS'high_fuses'
p577
S'0xde'
p578
sS'low_fuses'
p579
S'0xff'
p580
sS'lock_bits'
p581
S'0x0F'
p582
sS'file'
p583
S'optiboot_atmega328.hex'
p584
sS'path'
p585
S'optiboot'
p586
sS'unlock_bits'
p587
S'0x3F'
p588
ssS'upload'
p589
(dp590
S'protocol'
p591
S'arduino'
p592
sS'maximum_size'
p593
S'32256'
p594
sS'speed'
p595
S'115200'
p596
ssS'name'
p597
S'Arduino Ethernet'
p598
saa(lp599
S'fio'
p600
a(dp601
S'build'
p602
(dp603
S'core'
p604
S'arduino'
p605
sS'mcu'
p606
S'atmega328p'
p607
sS'f_cpu'
p608
S'8000000L'
p609
sS'variant'
p610
S'eightanaloginputs'
p611
ssS'bootloader'
p612
(dp613
S'extended_fuses'
p614
S'0x05'
p615
sS'high_fuses'
p616
S'0xDA'
p617
sS'low_fuses'
p618
S'0xFF'
p619
sS'lock_bits'
p620
S'0x0F'
p621
sS'file'
p622
S'ATmegaBOOT_168_atmega328_pro_8MHz.hex'
p623
sS'path'
p624
S'arduino:atmega'
p625
sS'unlock_bits'
p626
S'0x3F'
p627
ssS'upload'
p628
(dp629
S'protocol'
p630
S'arduino'
p631
sS'maximum_size'
p632
S'30720'
p633
sS'speed'
p634
S'57600'
p635
ssS'name'
p636
S'Arduino Fio'
p637
saa(lp638
S'bt328'
p639
a(dp640
S'build'
p641
(dp642
S'core'
p643
S'arduino'
p644
sS'mcu'
p645
S'atmega328p'
p646
sS'f_cpu'
p647
S'16000000L'
p648
sS'variant'
p649
S'eightanaloginputs'
p650
ssS'bootloader'
p651
(dp652
S'extended_fuses'
p653
S'0x05'
p654
sS'high_fuses'
p655
S'0xd8'
p656
sS'low_fuses'
p657
S'0xff'
p658
sS'lock_bits'
p659
S'0x0F'
p660
sS'file'
p661
S'ATmegaBOOT_168_atmega328_bt.hex'
p662
sS'path'
p663
S'bt'
p664
sS'unlock_bits'
p665
S'0x3F'
p666
ssS'upload'
p667
(dp668
S'protocol'
p669
S'arduino'
p670
sS'maximum_size'
p671
S'28672'
p672
sS'speed'
p673
S'19200'
p674
sS'disable_flushing'
p675
S'true'
p676
ssS'name'
p677
S'Arduino BT w/ ATmega328'
p678
saa(lp679
S'bt'
p680
a(dp681
S'build'
p682
(dp683
S'core'
p684
S'arduino'
p685
sS'mcu'
p686
S'atmega168'
p687
sS'f_cpu'
p688
S'16000000L'
p689
sS'variant'
p690
S'eightanaloginputs'
p691
ssS'bootloader'
p692
(dp693
S'extended_fuses'
p694
S'0x00'
p695
sS'high_fuses'
p696
S'0xdd'
p697
sS'low_fuses'
p698
S'0xff'
p699
sS'lock_bits'
p700
S'0x0F'
p701
sS'file'
p702
S'ATmegaBOOT_168.hex'
p703
sS'path'
p704
S'bt'
p705
sS'unlock_bits'
p706
S'0x3F'
p707
ssS'upload'
p708
(dp709
S'protocol'
p710
S'arduino'
p711
sS'maximum_size'
p712
S'14336'
p713
sS'speed'
p714
S'19200'
p715
sS'disable_flushing'
p716
S'true'
p717
ssS'name'
p718
S'Arduino BT w/ ATmega168'
p719
saa(lp720
S'LilyPadUSB'
p721
a(dp722
S'build'
p723
(dp724
S'core'
p725
S'arduino'
p726
sS'f_cpu'
p727
S'8000000L'
p728
sS'vid'
p729
S'0x1B4F'
p730
sS'pid'
p731
S'0x9208'
p732
sS'variant'
p733
S'leonardo'
p734
sS'mcu'
p735
S'atmega32u4'
p736
ssS'bootloader'
p737
(dp738
S'extended_fuses'
p739
S'0xce'
p740
sS'high_fuses'
p741
S'0xd8'
p742
sS'low_fuses'
p743
S'0xff'
p744
sS'lock_bits'
p745
S'0x2F'
p746
sS'file'
p747
S'Caterina-LilyPadUSB.hex'
p748
sS'path'
p749
S'caterina-LilyPadUSB'
p750
sS'unlock_bits'
p751
S'0x3F'
p752
ssS'upload'
p753
(dp754
S'protocol'
p755
S'avr109'
p756
sS'maximum_size'
p757
S'28672'
p758
sS'speed'
p759
S'57600'
p760
sS'disable_flushing'
p761
S'true'
p762
ssS'name'
p763
S'LilyPad Arduino USB'
p764
saa(lp765
S'lilypad328'
p766
a(dp767
S'build'
p768
(dp769
S'core'
p770
S'arduino'
p771
sS'mcu'
p772
S'atmega328p'
p773
sS'f_cpu'
p774
S'8000000L'
p775
sS'variant'
p776
S'standard'
p777
ssS'bootloader'
p778
(dp779
S'extended_fuses'
p780
S'0x05'
p781
sS'high_fuses'
p782
S'0xDA'
p783
sS'low_fuses'
p784
S'0xFF'
p785
sS'lock_bits'
p786
S'0x0F'
p787
sS'file'
p788
S'ATmegaBOOT_168_atmega328_pro_8MHz.hex'
p789
sS'path'
p790
S'atmega'
p791
sS'unlock_bits'
p792
S'0x3F'
p793
ssS'upload'
p794
(dp795
S'protocol'
p796
S'arduino'
p797
sS'maximum_size'
p798
S'30720'
p799
sS'speed'
p800
S'57600'
p801
ssS'name'
p802
S'LilyPad Arduino w/ ATmega328'
p803
saa(lp804
S'lilypad'
p805
a(dp806
S'build'
p807
(dp808
S'core'
p809
S'arduino'
p810
sS'mcu'
p811
S'atmega168'
p812
sS'f_cpu'
p813
S'8000000L'
p814
sS'variant'
p815
S'standard'
p816
ssS'bootloader'
p817
(dp818
S'extended_fuses'
p819
S'0x00'
p820
sS'high_fuses'
p821
S'0xdd'
p822
sS'low_fuses'
p823
S'0xe2'
p824
sS'lock_bits'
p825
S'0x0F'
p826
sS'file'
p827
S'LilyPadBOOT_168.hex'
p828
sS'path'
p829
S'lilypad'
p830
sS'unlock_bits'
p831
S'0x3F'
p832
ssS'upload'
p833
(dp834
S'protocol'
p835
S'arduino'
p836
sS'maximum_size'
p837
S'14336'
p838
sS'speed'
p839
S'19200'
p840
ssS'name'
p841
S'LilyPad Arduino w/ ATmega168'
p842
saa(lp843
S'pro5v328'
p844
a(dp845
S'build'
p846
(dp847
S'core'
p848
S'arduino'
p849
sS'mcu'
p850
S'atmega328p'
p851
sS'f_cpu'
p852
S'16000000L'
p853
sS'variant'
p854
S'standard'
p855
ssS'bootloader'
p856
(dp857
S'extended_fuses'
p858
S'0x05'
p859
sS'high_fuses'
p860
S'0xDA'
p861
sS'low_fuses'
p862
S'0xFF'
p863
sS'lock_bits'
p864
S'0x0F'
p865
sS'file'
p866
S'ATmegaBOOT_168_atmega328.hex'
p867
sS'path'
p868
S'atmega'
p869
sS'unlock_bits'
p870
S'0x3F'
p871
ssS'upload'
p872
(dp873
S'protocol'
p874
S'arduino'
p875
sS'maximum_size'
p876
S'30720'
p877
sS'speed'
p878
S'57600'
p879
ssS'name'
p880
S'Arduino Pro or Pro Mini (5V, 16 MHz) w/ ATmega328'
p881
saa(lp882
S'pro5v'
p883
a(dp884
S'build'
p885
(dp886
S'core'
p887
S'arduino'
p888
sS'mcu'
p889
S'atmega168'
p890
sS'f_cpu'
p891
S'16000000L'
p892
sS'variant'
p893
S'standard'
p894
ssS'bootloader'
p895
(dp896
S'extended_fuses'
p897
S'0x00'
p898
sS'high_fuses'
p899
S'0xdd'
p900
sS'low_fuses'
p901
S'0xff'
p902
sS'lock_bits'
p903
S'0x0F'
p904
sS'file'
p905
S'ATmegaBOOT_168_diecimila.hex'
p906
sS'path'
p907
S'atmega'
p908
sS'unlock_bits'
p909
S'0x3F'
p910
ssS'upload'
p911
(dp912
S'protocol'
p913
S'arduino'
p914
sS'maximum_size'
p915
S'14336'
p916
sS'speed'
p917
S'19200'
p918
ssS'name'
p919
S'Arduino Pro or Pro Mini (5V, 16 MHz) w/ ATmega168'
p920
saa(lp921
S'pro328'
p922
a(dp923
S'build'
p924
(dp925
S'core'
p926
S'arduino'
p927
sS'mcu'
p928
S'atmega328p'
p929
sS'f_cpu'
p930
S'8000000L'
p931
sS'variant'
p932
S'standard'
p933
ssS'bootloader'
p934
(dp935
S'extended_fuses'
p936
S'0x05'
p937
sS'high_fuses'
p938
S'0xDA'
p939
sS'low_fuses'
p940
S'0xFF'
p941
sS'lock_bits'
p942
S'0x0F'
p943
sS'file'
p944
S'ATmegaBOOT_168_atmega328_pro_8MHz.hex'
p945
sS'path'
p946
S'atmega'
p947
sS'unlock_bits'
p948
S'0x3F'
p949
ssS'upload'
p950
(dp951
S'protocol'
p952
S'arduino'
p953
sS'maximum_size'
p954
S'30720'
p955
sS'speed'
p956
S'57600'
p957
ssS'name'
p958
S'Arduino Pro or Pro Mini (3.3V, 8 MHz) w/ ATmega328'
p959
saa(lp960
S'pro'
p961
a(dp962
S'build'
p963
(dp964
S'core'
p965
S'arduino'
p966
sS'mcu'
p967
S'atmega168'
p968
sS'f_cpu'
p969
S'8000000L'
p970
sS'variant'
p971
S'standard'
p972
ssS'bootloader'
p973
(dp974
S'extended_fuses'
p975
S'0x00'
p976
sS'high_fuses'
p977
S'0xdd'
p978
sS'low_fuses'
p979
S'0xc6'
p980
sS'lock_bits'
p981
S'0x0F'
p982
sS'file'
p983
S'ATmegaBOOT_168_pro_8MHz.hex'
p984
sS'path'
p985
S'atmega'
p986
sS'unlock_bits'
p987
S'0x3F'
p988
ssS'upload'
p989
(dp990
S'protocol'
p991
S'arduino'
p992
sS'maximum_size'
p993
S'14336'
p994
sS'speed'
p995
S'19200'
p996
ssS'name'
p997
S'Arduino Pro or Pro Mini (3.3V, 8 MHz) w/ ATmega168'
p998
saa(lp999
S'atmega168'
p1000
a(dp1001
S'build'
p1002
(dp1003
S'core'
p1004
S'arduino'
p1005
sS'mcu'
p1006
S'atmega168'
p1007
sS'f_cpu'
p1008
S'16000000L'
p1009
sS'variant'
p1010
S'standard'
p1011
ssS'bootloader'
p1012
(dp1013
S'extended_fuses'
p1014
S'0x00'
p1015
sS'high_fuses'
p1016
S'0xdd'
p1017
sS'low_fuses'
p1018
S'0xff'
p1019
sS'lock_bits'
p1020
S'0x0F'
p1021
sS'file'
p1022
S'ATmegaBOOT_168_ng.hex'
p1023
sS'path'
p1024
S'atmega'
p1025
sS'unlock_bits'
p1026
S'0x3F'
p1027
ssS'upload'
p1028
(dp1029
S'protocol'
p1030
S'arduino'
p1031
sS'maximum_size'
p1032
S'14336'
p1033
sS'speed'
p1034
S'19200'
p1035
ssS'name'
p1036
S'Arduino NG or older w/ ATmega168'
p1037
saa(lp1038
S'atmega8'
p1039
a(dp1040
S'build'
p1041
(dp1042
S'core'
p1043
S'arduino'
p1044
sS'mcu'
p1045
S'atmega8'
p1046
sS'f_cpu'
p1047
S'16000000L'
p1048
sS'variant'
p1049
S'standard'
p1050
ssS'bootloader'
p1051
(dp1052
S'high_fuses'
p1053
S'0xca'
p1054
sS'low_fuses'
p1055
S'0xdf'
p1056
sS'lock_bits'
p1057
S'0x0F'
p1058
sS'file'
p1059
S'ATmegaBOOT-prod-firmware-2009-11-07.hex'
p1060
sS'path'
p1061
S'atmega8'
p1062
sS'unlock_bits'
p1063
S'0x3F'
p1064
ssS'upload'
p1065
(dp1066
S'protocol'
p1067
S'arduino'
p1068
sS'maximum_size'
p1069
S'7168'
p1070
sS'speed'
p1071
S'19200'
p1072
ssS'name'
p1073
S'Arduino NG or older w/ ATmega8'
p1074
saa(lp1075
S'robotControl'
p1076
a(dp1077
S'build'
p1078
(dp1079
S'core'
p1080
S'robot'
p1081
sS'f_cpu'
p1082
S'16000000L'
p1083
sS'vid'
p1084
S'0x2341'
p1085
sS'pid'
p1086
S'0x8038'
p1087
sS'variant'
p1088
S'robot_control'
p1089
sS'mcu'
p1090
S'atmega32u4'
p1091
ssS'bootloader'
p1092
(dp1093
S'extended_fuses'
p1094
S'0xcb'
p1095
sS'high_fuses'
p1096
S'0xd8'
p1097
sS'low_fuses'
p1098
S'0xff'
p1099
sS'lock_bits'
p1100
S'0x2F'
p1101
sS'file'
p1102
S'Caterina-Robot-Control.hex'
p1103
sS'path'
p1104
S'caterina-Arduino_Robot'
p1105
sS'unlock_bits'
p1106
S'0x3F'
p1107
ssS'upload'
p1108
(dp1109
S'protocol'
p1110
S'avr109'
p1111
sS'maximum_size'
p1112
S'28672'
p1113
sS'speed'
p1114
S'57600'
p1115
sS'disable_flushing'
p1116
S'true'
p1117
ssS'name'
p1118
S'Arduino Robot Control'
p1119
saa(lp1120
S'robotMotor'
p1121
a(dp1122
S'build'
p1123
(dp1124
S'core'
p1125
S'robot'
p1126
sS'f_cpu'
p1127
S'16000000L'
p1128
sS'vid'
p1129
S'0x2341'
p1130
sS'pid'
p1131
S'0x8039'
p1132
sS'variant'
p1133
S'robot_motor'
p1134
sS'mcu'
p1135
S'atmega32u4'
p1136
ssS'bootloader'
p1137
(dp1138
S'extended_fuses'
p1139
S'0xcb'
p1140
sS'high_fuses'
p1141
S'0xd8'
p1142
sS'low_fuses'
p1143
S'0xff'
p1144
sS'lock_bits'
p1145
S'0x2F'
p1146
sS'file'
p1147
S'Caterina-Robot-Motor.hex'
p1148
sS'path'
p1149
S'caterina-Arduino_Robot'
p1150
sS'unlock_bits'
p1151
S'0x3F'
p1152
ssS'upload'
p1153
(dp1154
S'protocol'
p1155
S'avr109'
p1156
sS'maximum_size'
p1157
S'28672'
p1158
sS'speed'
p1159
S'57600'
p1160
sS'disable_flushing'
p1161
S'true'
p1162
ssS'name'
p1163
S'Arduino Robot Motor'
p1164
saatp1165
Rp1166
(dp1167
S'default'
p1168
S'uno'
p1169
sbtp1170
a(S'used_libs'
p1171
(lp1172
S'lib/OneWire'
p1173
aS'lib/RTClib'
p1174
aS'lib/EEPROMEx'
p1175
aS'lib/SD'
p1176
aS'lib/Wire'
p1177
aS'/Applications/Arduino.app/Contents/Resources/Java/hardware/arduino/cores/arduino'
p1178
atp1179
a(S'make'
p1180
S'/Applications/Arduino.app/Contents/Resources/Java/hardware/tools/avr/bin/make'
p1181
tp1182
a(S'build_dir'
p1183
S'.build/mega2560'
p1184
tp1185
a(S'cc'
p1186
S'/Applications/Arduino.app/Contents/Resources/Java/hardware/tools/avr/bin/avr-gcc'
p1187
tp1188
a(S'cflags'
p1189
g2
(g3
g4
(lp1190
tp1191
Rp1192
tp1193
a(S'cxxflags'
p1194
g2
(g3
g4
(lp1195
S'-fno-exceptions'
p1196
atp1197
Rp1198
tp1199
a(S'arduino_variants_dir'
p1200
S'/Applications/Arduino.app/Contents/Resources/Java/hardware/arduino/variants'
p1201
tp1202
a(S'serial'
p1203
S'/usr/local/bin/picocom'
p1204
tp1205
a(S'stty'
p1206
S'/bin/stty'
p1207
tp1208
a(S'version.txt'
p1209
S'/Applications/Arduino.app/Contents/Resources/Java/lib/version.txt'
p1210
tp1211
a(S'arduino_core_dir'
p1212
g1178
tp1213
a(S'boards.txt'
p1214
S'/Applications/Arduino.app/Contents/Resources/Java/hardware/arduino/boards.txt'
p1215
tp1216
a(S'avrdude.conf'
p1217
S'/Applications/Arduino.app/Contents/Resources/Java/hardware/tools/avr/etc/avrdude.conf'
p1218
tp1219
a(g51
g2
(g3
g4
(lp1220
S'.build/mega2560/src/dependencies.d'
p1221
aS'.build/mega2560/arduino/dependencies.d'
p1222
aS'.build/mega2560/OneWire/dependencies.d'
p1223
aS'.build/mega2560/Wire/dependencies.d'
p1224
aS'.build/mega2560/RTClib/dependencies.d'
p1225
aS'.build/mega2560/EEPROMEx/dependencies.d'
p1226
aS'.build/mega2560/SD/dependencies.d'
p1227
atp1228
Rp1229
tp1230
a.