(lp0
(S'cppflags'
p1
ccopy_reg
_reconstructor
p2
(cino.utils
SpaceList
p3
c__builtin__
list
p4
(lp5
S'-mmcu=atmega328p'
p6
aS'-DF_CPU=16000000L'
p7
aS'-DARDUINO=105'
p8
aS'-I/Applications/Arduino.app/Contents/Resources/Java/hardware/arduino/cores/arduino'
p9
aS'-ffunction-sections'
p10
aS'-fdata-sections'
p11
aS'-g'
p12
aS'-Os'
p13
aS'-w'
p14
aS'-I/Applications/Arduino.app/Contents/Resources/Java/hardware/arduino/variants/standard'
p15
aS'-Ilib/OneWire'
p16
aS'-Ilib/EEPROMEx'
p17
aS'-Ilib/EEPROMEx/Examples'
p18
aS'-Ilib/EEPROMEx/Examples/EEPROMEx'
p19
aS'-Ilib/EEPROMEx/Examples/EEPROMVar'
p20
aS'-Ilib/RTClib'
p21
aS'-Ilib/Wire'
p22
aS'-Ilib/Wire/utility'
p23
aS'-I/Applications/Arduino.app/Contents/Resources/Java/hardware/arduino/cores/arduino'
p24
aS'-I/Applications/Arduino.app/Contents/Resources/Java/hardware/arduino/cores/arduino/avr-libc'
p25
atp26
Rp27
tp28
a(S'version.txt'
p29
S'/Applications/Arduino.app/Contents/Resources/Java/lib/version.txt'
p30
tp31
a(S'used_libs'
p32
(lp33
S'lib/OneWire'
p34
aS'lib/EEPROMEx'
p35
aS'lib/RTClib'
p36
aS'lib/Wire'
p37
aS'/Applications/Arduino.app/Contents/Resources/Java/hardware/arduino/cores/arduino'
p38
atp39
a(S'cc'
p40
S'/Applications/Arduino.app/Contents/Resources/Java/hardware/tools/avr/bin/avr-gcc'
p41
tp42
a(S'make'
p43
S'/Applications/Arduino.app/Contents/Resources/Java/hardware/tools/avr/bin/make'
p44
tp45
a(S'build_dir'
p46
S'.build/uno'
p47
tp48
a(S'arduino_core_dir'
p49
g38
tp50
a(S'boards.txt'
p51
S'/Applications/Arduino.app/Contents/Resources/Java/hardware/arduino/boards.txt'
p52
tp53
a(S'cxxflags'
p54
g2
(g3
g4
(lp55
S'-fno-exceptions'
p56
atp57
Rp58
tp59
a(S'arduino_variants_dir'
p60
S'/Applications/Arduino.app/Contents/Resources/Java/hardware/arduino/variants'
p61
tp62
a(S'deps'
p63
g2
(g3
g4
(lp64
S'.build/uno/src/dependencies.d'
p65
aS'.build/uno/arduino/dependencies.d'
p66
aS'.build/uno/OneWire/dependencies.d'
p67
aS'.build/uno/EEPROMEx/dependencies.d'
p68
aS'.build/uno/RTClib/dependencies.d'
p69
aS'.build/uno/Wire/dependencies.d'
p70
atp71
Rp72
tp73
a(S'ar'
p74
S'/Applications/Arduino.app/Contents/Resources/Java/hardware/tools/avr/bin/avr-ar'
p75
tp76
a(S'names'
p77
(dp78
S'cpp'
p79
S'%s.cpp'
p80
sS'obj'
p81
S'%s.o'
p82
sg63
S'%s.d'
p83
sS'lib'
p84
S'lib%s.a'
p85
stp86
a(S'cflags'
p87
g2
(g3
g4
(lp88
tp89
Rp90
tp91
a(S'ldflags'
p92
g2
(g3
g4
(lp93
g6
aS'-Wl,-Os'
p94
aS'-Wl,--gc-sections'
p95
atp96
Rp97
tp98
a(S'arduino_libraries_dir'
p99
S'/Applications/Arduino.app/Contents/Resources/Java/libraries'
p100
tp101
a(S'arduino_lib_version'
p102
g2
(cino.environment
Version
p103
c__builtin__
tuple
p104
(I1
I0
I5
tp105
tp106
Rp107
tp108
a(S'objcopy'
p109
S'/Applications/Arduino.app/Contents/Resources/Java/hardware/tools/avr/bin/avr-objcopy'
p110
tp111
a(S'board_models'
p112
cino.environment
BoardModels
p113
((lp114
(lp115
S'uno'
p116
a(dp117
S'build'
p118
(dp119
S'core'
p120
S'arduino'
p121
sS'mcu'
p122
S'atmega328p'
p123
sS'f_cpu'
p124
S'16000000L'
p125
sS'variant'
p126
S'standard'
p127
ssS'bootloader'
p128
(dp129
S'extended_fuses'
p130
S'0x05'
p131
sS'high_fuses'
p132
S'0xde'
p133
sS'low_fuses'
p134
S'0xff'
p135
sS'lock_bits'
p136
S'0x0F'
p137
sS'file'
p138
S'optiboot_atmega328.hex'
p139
sS'path'
p140
S'optiboot'
p141
sS'unlock_bits'
p142
S'0x3F'
p143
ssS'name'
p144
S'Arduino Uno'
p145
sS'upload'
p146
(dp147
S'speed'
p148
S'115200'
p149
sS'maximum_size'
p150
S'32256'
p151
sS'protocol'
p152
S'arduino'
p153
ssaa(lp154
S'atmega328'
p155
a(dp156
S'build'
p157
(dp158
S'core'
p159
S'arduino'
p160
sS'mcu'
p161
S'atmega328p'
p162
sS'f_cpu'
p163
S'16000000L'
p164
sS'variant'
p165
S'standard'
p166
ssS'bootloader'
p167
(dp168
S'extended_fuses'
p169
S'0x05'
p170
sS'high_fuses'
p171
S'0xDA'
p172
sS'low_fuses'
p173
S'0xFF'
p174
sS'lock_bits'
p175
S'0x0F'
p176
sS'file'
p177
S'ATmegaBOOT_168_atmega328.hex'
p178
sS'path'
p179
S'atmega'
p180
sS'unlock_bits'
p181
S'0x3F'
p182
ssS'name'
p183
S'Arduino Duemilanove w/ ATmega328'
p184
sS'upload'
p185
(dp186
S'speed'
p187
S'57600'
p188
sS'maximum_size'
p189
S'30720'
p190
sS'protocol'
p191
S'arduino'
p192
ssaa(lp193
S'diecimila'
p194
a(dp195
S'build'
p196
(dp197
S'core'
p198
S'arduino'
p199
sS'mcu'
p200
S'atmega168'
p201
sS'f_cpu'
p202
S'16000000L'
p203
sS'variant'
p204
S'standard'
p205
ssS'bootloader'
p206
(dp207
S'extended_fuses'
p208
S'0x00'
p209
sS'high_fuses'
p210
S'0xdd'
p211
sS'low_fuses'
p212
S'0xff'
p213
sS'lock_bits'
p214
S'0x0F'
p215
sS'file'
p216
S'ATmegaBOOT_168_diecimila.hex'
p217
sS'path'
p218
S'atmega'
p219
sS'unlock_bits'
p220
S'0x3F'
p221
ssS'name'
p222
S'Arduino Diecimila or Duemilanove w/ ATmega168'
p223
sS'upload'
p224
(dp225
S'speed'
p226
S'19200'
p227
sS'maximum_size'
p228
S'14336'
p229
sS'protocol'
p230
S'arduino'
p231
ssaa(lp232
S'nano328'
p233
a(dp234
S'build'
p235
(dp236
S'core'
p237
S'arduino'
p238
sS'mcu'
p239
S'atmega328p'
p240
sS'f_cpu'
p241
S'16000000L'
p242
sS'variant'
p243
S'eightanaloginputs'
p244
ssS'bootloader'
p245
(dp246
S'extended_fuses'
p247
S'0x05'
p248
sS'high_fuses'
p249
S'0xDA'
p250
sS'low_fuses'
p251
S'0xFF'
p252
sS'lock_bits'
p253
S'0x0F'
p254
sS'file'
p255
S'ATmegaBOOT_168_atmega328.hex'
p256
sS'path'
p257
S'atmega'
p258
sS'unlock_bits'
p259
S'0x3F'
p260
ssS'name'
p261
S'Arduino Nano w/ ATmega328'
p262
sS'upload'
p263
(dp264
S'speed'
p265
S'57600'
p266
sS'maximum_size'
p267
S'30720'
p268
sS'protocol'
p269
S'arduino'
p270
ssaa(lp271
S'nano'
p272
a(dp273
S'build'
p274
(dp275
S'core'
p276
S'arduino'
p277
sS'mcu'
p278
S'atmega168'
p279
sS'f_cpu'
p280
S'16000000L'
p281
sS'variant'
p282
S'eightanaloginputs'
p283
ssS'bootloader'
p284
(dp285
S'extended_fuses'
p286
S'0x00'
p287
sS'high_fuses'
p288
S'0xdd'
p289
sS'low_fuses'
p290
S'0xff'
p291
sS'lock_bits'
p292
S'0x0F'
p293
sS'file'
p294
S'ATmegaBOOT_168_diecimila.hex'
p295
sS'path'
p296
S'atmega'
p297
sS'unlock_bits'
p298
S'0x3F'
p299
ssS'name'
p300
S'Arduino Nano w/ ATmega168'
p301
sS'upload'
p302
(dp303
S'speed'
p304
S'19200'
p305
sS'maximum_size'
p306
S'14336'
p307
sS'protocol'
p308
S'arduino'
p309
ssaa(lp310
S'mega2560'
p311
a(dp312
S'build'
p313
(dp314
S'core'
p315
S'arduino'
p316
sS'mcu'
p317
S'atmega2560'
p318
sS'f_cpu'
p319
S'16000000L'
p320
sS'variant'
p321
S'mega'
p322
ssS'bootloader'
p323
(dp324
S'extended_fuses'
p325
S'0xFD'
p326
sS'high_fuses'
p327
S'0xD8'
p328
sS'low_fuses'
p329
S'0xFF'
p330
sS'lock_bits'
p331
S'0x0F'
p332
sS'file'
p333
S'stk500boot_v2_mega2560.hex'
p334
sS'path'
p335
S'stk500v2'
p336
sS'unlock_bits'
p337
S'0x3F'
p338
ssS'name'
p339
S'Arduino Mega 2560 or Mega ADK'
p340
sS'upload'
p341
(dp342
S'speed'
p343
S'115200'
p344
sS'maximum_size'
p345
S'258048'
p346
sS'protocol'
p347
S'wiring'
p348
ssaa(lp349
S'mega'
p350
a(dp351
S'build'
p352
(dp353
S'core'
p354
S'arduino'
p355
sS'mcu'
p356
S'atmega1280'
p357
sS'f_cpu'
p358
S'16000000L'
p359
sS'variant'
p360
S'mega'
p361
ssS'bootloader'
p362
(dp363
S'extended_fuses'
p364
S'0xF5'
p365
sS'high_fuses'
p366
S'0xDA'
p367
sS'low_fuses'
p368
S'0xFF'
p369
sS'lock_bits'
p370
S'0x0F'
p371
sS'file'
p372
S'ATmegaBOOT_168_atmega1280.hex'
p373
sS'path'
p374
S'atmega'
p375
sS'unlock_bits'
p376
S'0x3F'
p377
ssS'name'
p378
S'Arduino Mega (ATmega1280)'
p379
sS'upload'
p380
(dp381
S'speed'
p382
S'57600'
p383
sS'maximum_size'
p384
S'126976'
p385
sS'protocol'
p386
S'arduino'
p387
ssaa(lp388
S'leonardo'
p389
a(dp390
S'build'
p391
(dp392
S'core'
p393
S'arduino'
p394
sS'f_cpu'
p395
S'16000000L'
p396
sS'vid'
p397
S'0x2341'
p398
sS'pid'
p399
S'0x8036'
p400
sS'variant'
p401
S'leonardo'
p402
sS'mcu'
p403
S'atmega32u4'
p404
ssS'bootloader'
p405
(dp406
S'extended_fuses'
p407
S'0xcb'
p408
sS'high_fuses'
p409
S'0xd8'
p410
sS'low_fuses'
p411
S'0xff'
p412
sS'lock_bits'
p413
S'0x2F'
p414
sS'file'
p415
S'Caterina-Leonardo.hex'
p416
sS'path'
p417
S'caterina'
p418
sS'unlock_bits'
p419
S'0x3F'
p420
ssS'name'
p421
S'Arduino Leonardo'
p422
sS'upload'
p423
(dp424
S'speed'
p425
S'57600'
p426
sS'maximum_size'
p427
S'28672'
p428
sS'protocol'
p429
S'avr109'
p430
sS'disable_flushing'
p431
S'true'
p432
ssaa(lp433
S'esplora'
p434
a(dp435
S'build'
p436
(dp437
S'core'
p438
S'arduino'
p439
sS'f_cpu'
p440
S'16000000L'
p441
sS'vid'
p442
S'0x2341'
p443
sS'pid'
p444
S'0x803C'
p445
sS'variant'
p446
S'leonardo'
p447
sS'mcu'
p448
S'atmega32u4'
p449
ssS'bootloader'
p450
(dp451
S'extended_fuses'
p452
S'0xcb'
p453
sS'high_fuses'
p454
S'0xd8'
p455
sS'low_fuses'
p456
S'0xff'
p457
sS'lock_bits'
p458
S'0x2F'
p459
sS'file'
p460
S'Caterina-Esplora.hex'
p461
sS'path'
p462
S'caterina'
p463
sS'unlock_bits'
p464
S'0x3F'
p465
ssS'name'
p466
S'Arduino Esplora'
p467
sS'upload'
p468
(dp469
S'speed'
p470
S'57600'
p471
sS'maximum_size'
p472
S'28672'
p473
sS'protocol'
p474
S'avr109'
p475
sS'disable_flushing'
p476
S'true'
p477
ssaa(lp478
S'micro'
p479
a(dp480
S'build'
p481
(dp482
S'core'
p483
S'arduino'
p484
sS'f_cpu'
p485
S'16000000L'
p486
sS'vid'
p487
S'0x2341'
p488
sS'pid'
p489
S'0x8037'
p490
sS'variant'
p491
S'micro'
p492
sS'mcu'
p493
S'atmega32u4'
p494
ssS'bootloader'
p495
(dp496
S'extended_fuses'
p497
S'0xcb'
p498
sS'high_fuses'
p499
S'0xd8'
p500
sS'low_fuses'
p501
S'0xff'
p502
sS'lock_bits'
p503
S'0x2F'
p504
sS'file'
p505
S'Caterina-Micro.hex'
p506
sS'path'
p507
S'caterina'
p508
sS'unlock_bits'
p509
S'0x3F'
p510
ssS'name'
p511
S'Arduino Micro'
p512
sS'upload'
p513
(dp514
S'speed'
p515
S'57600'
p516
sS'maximum_size'
p517
S'28672'
p518
sS'protocol'
p519
S'avr109'
p520
sS'disable_flushing'
p521
S'true'
p522
ssaa(lp523
S'mini328'
p524
a(dp525
S'build'
p526
(dp527
S'core'
p528
S'arduino'
p529
sS'mcu'
p530
S'atmega328p'
p531
sS'f_cpu'
p532
S'16000000L'
p533
sS'variant'
p534
S'eightanaloginputs'
p535
ssS'bootloader'
p536
(dp537
S'extended_fuses'
p538
S'0x05'
p539
sS'high_fuses'
p540
S'0xd8'
p541
sS'low_fuses'
p542
S'0xff'
p543
sS'lock_bits'
p544
S'0x0F'
p545
sS'file'
p546
S'optiboot_atmega328-Mini.hex'
p547
sS'path'
p548
S'optiboot'
p549
sS'unlock_bits'
p550
S'0x3F'
p551
ssS'name'
p552
S'Arduino Mini w/ ATmega328'
p553
sS'upload'
p554
(dp555
S'speed'
p556
S'115200'
p557
sS'maximum_size'
p558
S'28672'
p559
sS'protocol'
p560
S'arduino'
p561
ssaa(lp562
S'mini'
p563
a(dp564
S'build'
p565
(dp566
S'core'
p567
S'arduino'
p568
sS'mcu'
p569
S'atmega168'
p570
sS'f_cpu'
p571
S'16000000L'
p572
sS'variant'
p573
S'eightanaloginputs'
p574
ssS'bootloader'
p575
(dp576
S'extended_fuses'
p577
S'0x00'
p578
sS'high_fuses'
p579
S'0xdd'
p580
sS'low_fuses'
p581
S'0xff'
p582
sS'lock_bits'
p583
S'0x0F'
p584
sS'file'
p585
S'ATmegaBOOT_168_ng.hex'
p586
sS'path'
p587
S'atmega'
p588
sS'unlock_bits'
p589
S'0x3F'
p590
ssS'name'
p591
S'Arduino Mini w/ ATmega168'
p592
sS'upload'
p593
(dp594
S'speed'
p595
S'19200'
p596
sS'maximum_size'
p597
S'14336'
p598
sS'protocol'
p599
S'arduino'
p600
ssaa(lp601
S'ethernet'
p602
a(dp603
S'build'
p604
(dp605
S'f_cpu'
p606
S'16000000L'
p607
sS'mcu'
p608
S'atmega328p'
p609
sS'variant'
p610
S'standard'
p611
sS'core'
p612
S'arduino'
p613
ssS'bootloader'
p614
(dp615
S'extended_fuses'
p616
S'0x05'
p617
sS'high_fuses'
p618
S'0xde'
p619
sS'low_fuses'
p620
S'0xff'
p621
sS'lock_bits'
p622
S'0x0F'
p623
sS'file'
p624
S'optiboot_atmega328.hex'
p625
sS'path'
p626
S'optiboot'
p627
sS'unlock_bits'
p628
S'0x3F'
p629
ssS'name'
p630
S'Arduino Ethernet'
p631
sS'upload'
p632
(dp633
S'speed'
p634
S'115200'
p635
sS'maximum_size'
p636
S'32256'
p637
sS'protocol'
p638
S'arduino'
p639
ssaa(lp640
S'fio'
p641
a(dp642
S'build'
p643
(dp644
S'core'
p645
S'arduino'
p646
sS'mcu'
p647
S'atmega328p'
p648
sS'f_cpu'
p649
S'8000000L'
p650
sS'variant'
p651
S'eightanaloginputs'
p652
ssS'bootloader'
p653
(dp654
S'extended_fuses'
p655
S'0x05'
p656
sS'high_fuses'
p657
S'0xDA'
p658
sS'low_fuses'
p659
S'0xFF'
p660
sS'lock_bits'
p661
S'0x0F'
p662
sS'file'
p663
S'ATmegaBOOT_168_atmega328_pro_8MHz.hex'
p664
sS'path'
p665
S'arduino:atmega'
p666
sS'unlock_bits'
p667
S'0x3F'
p668
ssS'name'
p669
S'Arduino Fio'
p670
sS'upload'
p671
(dp672
S'speed'
p673
S'57600'
p674
sS'maximum_size'
p675
S'30720'
p676
sS'protocol'
p677
S'arduino'
p678
ssaa(lp679
S'bt328'
p680
a(dp681
S'build'
p682
(dp683
S'core'
p684
S'arduino'
p685
sS'mcu'
p686
S'atmega328p'
p687
sS'f_cpu'
p688
S'16000000L'
p689
sS'variant'
p690
S'eightanaloginputs'
p691
ssS'bootloader'
p692
(dp693
S'extended_fuses'
p694
S'0x05'
p695
sS'high_fuses'
p696
S'0xd8'
p697
sS'low_fuses'
p698
S'0xff'
p699
sS'lock_bits'
p700
S'0x0F'
p701
sS'file'
p702
S'ATmegaBOOT_168_atmega328_bt.hex'
p703
sS'path'
p704
S'bt'
p705
sS'unlock_bits'
p706
S'0x3F'
p707
ssS'name'
p708
S'Arduino BT w/ ATmega328'
p709
sS'upload'
p710
(dp711
S'speed'
p712
S'19200'
p713
sS'maximum_size'
p714
S'28672'
p715
sS'protocol'
p716
S'arduino'
p717
sS'disable_flushing'
p718
S'true'
p719
ssaa(lp720
S'bt'
p721
a(dp722
S'build'
p723
(dp724
S'core'
p725
S'arduino'
p726
sS'mcu'
p727
S'atmega168'
p728
sS'f_cpu'
p729
S'16000000L'
p730
sS'variant'
p731
S'eightanaloginputs'
p732
ssS'bootloader'
p733
(dp734
S'extended_fuses'
p735
S'0x00'
p736
sS'high_fuses'
p737
S'0xdd'
p738
sS'low_fuses'
p739
S'0xff'
p740
sS'lock_bits'
p741
S'0x0F'
p742
sS'file'
p743
S'ATmegaBOOT_168.hex'
p744
sS'path'
p745
S'bt'
p746
sS'unlock_bits'
p747
S'0x3F'
p748
ssS'name'
p749
S'Arduino BT w/ ATmega168'
p750
sS'upload'
p751
(dp752
S'speed'
p753
S'19200'
p754
sS'maximum_size'
p755
S'14336'
p756
sS'protocol'
p757
S'arduino'
p758
sS'disable_flushing'
p759
S'true'
p760
ssaa(lp761
S'LilyPadUSB'
p762
a(dp763
S'build'
p764
(dp765
S'core'
p766
S'arduino'
p767
sS'f_cpu'
p768
S'8000000L'
p769
sS'vid'
p770
S'0x1B4F'
p771
sS'pid'
p772
S'0x9208'
p773
sS'variant'
p774
S'leonardo'
p775
sS'mcu'
p776
S'atmega32u4'
p777
ssS'bootloader'
p778
(dp779
S'extended_fuses'
p780
S'0xce'
p781
sS'high_fuses'
p782
S'0xd8'
p783
sS'low_fuses'
p784
S'0xff'
p785
sS'lock_bits'
p786
S'0x2F'
p787
sS'file'
p788
S'Caterina-LilyPadUSB.hex'
p789
sS'path'
p790
S'caterina-LilyPadUSB'
p791
sS'unlock_bits'
p792
S'0x3F'
p793
ssS'name'
p794
S'LilyPad Arduino USB'
p795
sS'upload'
p796
(dp797
S'speed'
p798
S'57600'
p799
sS'maximum_size'
p800
S'28672'
p801
sS'protocol'
p802
S'avr109'
p803
sS'disable_flushing'
p804
S'true'
p805
ssaa(lp806
S'lilypad328'
p807
a(dp808
S'build'
p809
(dp810
S'core'
p811
S'arduino'
p812
sS'mcu'
p813
S'atmega328p'
p814
sS'f_cpu'
p815
S'8000000L'
p816
sS'variant'
p817
S'standard'
p818
ssS'bootloader'
p819
(dp820
S'extended_fuses'
p821
S'0x05'
p822
sS'high_fuses'
p823
S'0xDA'
p824
sS'low_fuses'
p825
S'0xFF'
p826
sS'lock_bits'
p827
S'0x0F'
p828
sS'file'
p829
S'ATmegaBOOT_168_atmega328_pro_8MHz.hex'
p830
sS'path'
p831
S'atmega'
p832
sS'unlock_bits'
p833
S'0x3F'
p834
ssS'name'
p835
S'LilyPad Arduino w/ ATmega328'
p836
sS'upload'
p837
(dp838
S'speed'
p839
S'57600'
p840
sS'maximum_size'
p841
S'30720'
p842
sS'protocol'
p843
S'arduino'
p844
ssaa(lp845
S'lilypad'
p846
a(dp847
S'build'
p848
(dp849
S'core'
p850
S'arduino'
p851
sS'mcu'
p852
S'atmega168'
p853
sS'f_cpu'
p854
S'8000000L'
p855
sS'variant'
p856
S'standard'
p857
ssS'bootloader'
p858
(dp859
S'extended_fuses'
p860
S'0x00'
p861
sS'high_fuses'
p862
S'0xdd'
p863
sS'low_fuses'
p864
S'0xe2'
p865
sS'lock_bits'
p866
S'0x0F'
p867
sS'file'
p868
S'LilyPadBOOT_168.hex'
p869
sS'path'
p870
S'lilypad'
p871
sS'unlock_bits'
p872
S'0x3F'
p873
ssS'name'
p874
S'LilyPad Arduino w/ ATmega168'
p875
sS'upload'
p876
(dp877
S'speed'
p878
S'19200'
p879
sS'maximum_size'
p880
S'14336'
p881
sS'protocol'
p882
S'arduino'
p883
ssaa(lp884
S'pro5v328'
p885
a(dp886
S'build'
p887
(dp888
S'core'
p889
S'arduino'
p890
sS'mcu'
p891
S'atmega328p'
p892
sS'f_cpu'
p893
S'16000000L'
p894
sS'variant'
p895
S'standard'
p896
ssS'bootloader'
p897
(dp898
S'extended_fuses'
p899
S'0x05'
p900
sS'high_fuses'
p901
S'0xDA'
p902
sS'low_fuses'
p903
S'0xFF'
p904
sS'lock_bits'
p905
S'0x0F'
p906
sS'file'
p907
S'ATmegaBOOT_168_atmega328.hex'
p908
sS'path'
p909
S'atmega'
p910
sS'unlock_bits'
p911
S'0x3F'
p912
ssS'name'
p913
S'Arduino Pro or Pro Mini (5V, 16 MHz) w/ ATmega328'
p914
sS'upload'
p915
(dp916
S'speed'
p917
S'57600'
p918
sS'maximum_size'
p919
S'30720'
p920
sS'protocol'
p921
S'arduino'
p922
ssaa(lp923
S'pro5v'
p924
a(dp925
S'build'
p926
(dp927
S'core'
p928
S'arduino'
p929
sS'mcu'
p930
S'atmega168'
p931
sS'f_cpu'
p932
S'16000000L'
p933
sS'variant'
p934
S'standard'
p935
ssS'bootloader'
p936
(dp937
S'extended_fuses'
p938
S'0x00'
p939
sS'high_fuses'
p940
S'0xdd'
p941
sS'low_fuses'
p942
S'0xff'
p943
sS'lock_bits'
p944
S'0x0F'
p945
sS'file'
p946
S'ATmegaBOOT_168_diecimila.hex'
p947
sS'path'
p948
S'atmega'
p949
sS'unlock_bits'
p950
S'0x3F'
p951
ssS'name'
p952
S'Arduino Pro or Pro Mini (5V, 16 MHz) w/ ATmega168'
p953
sS'upload'
p954
(dp955
S'speed'
p956
S'19200'
p957
sS'maximum_size'
p958
S'14336'
p959
sS'protocol'
p960
S'arduino'
p961
ssaa(lp962
S'pro328'
p963
a(dp964
S'build'
p965
(dp966
S'core'
p967
S'arduino'
p968
sS'mcu'
p969
S'atmega328p'
p970
sS'f_cpu'
p971
S'8000000L'
p972
sS'variant'
p973
S'standard'
p974
ssS'bootloader'
p975
(dp976
S'extended_fuses'
p977
S'0x05'
p978
sS'high_fuses'
p979
S'0xDA'
p980
sS'low_fuses'
p981
S'0xFF'
p982
sS'lock_bits'
p983
S'0x0F'
p984
sS'file'
p985
S'ATmegaBOOT_168_atmega328_pro_8MHz.hex'
p986
sS'path'
p987
S'atmega'
p988
sS'unlock_bits'
p989
S'0x3F'
p990
ssS'name'
p991
S'Arduino Pro or Pro Mini (3.3V, 8 MHz) w/ ATmega328'
p992
sS'upload'
p993
(dp994
S'speed'
p995
S'57600'
p996
sS'maximum_size'
p997
S'30720'
p998
sS'protocol'
p999
S'arduino'
p1000
ssaa(lp1001
S'pro'
p1002
a(dp1003
S'build'
p1004
(dp1005
S'core'
p1006
S'arduino'
p1007
sS'mcu'
p1008
S'atmega168'
p1009
sS'f_cpu'
p1010
S'8000000L'
p1011
sS'variant'
p1012
S'standard'
p1013
ssS'bootloader'
p1014
(dp1015
S'extended_fuses'
p1016
S'0x00'
p1017
sS'high_fuses'
p1018
S'0xdd'
p1019
sS'low_fuses'
p1020
S'0xc6'
p1021
sS'lock_bits'
p1022
S'0x0F'
p1023
sS'file'
p1024
S'ATmegaBOOT_168_pro_8MHz.hex'
p1025
sS'path'
p1026
S'atmega'
p1027
sS'unlock_bits'
p1028
S'0x3F'
p1029
ssS'name'
p1030
S'Arduino Pro or Pro Mini (3.3V, 8 MHz) w/ ATmega168'
p1031
sS'upload'
p1032
(dp1033
S'speed'
p1034
S'19200'
p1035
sS'maximum_size'
p1036
S'14336'
p1037
sS'protocol'
p1038
S'arduino'
p1039
ssaa(lp1040
S'atmega168'
p1041
a(dp1042
S'build'
p1043
(dp1044
S'core'
p1045
S'arduino'
p1046
sS'mcu'
p1047
S'atmega168'
p1048
sS'f_cpu'
p1049
S'16000000L'
p1050
sS'variant'
p1051
S'standard'
p1052
ssS'bootloader'
p1053
(dp1054
S'extended_fuses'
p1055
S'0x00'
p1056
sS'high_fuses'
p1057
S'0xdd'
p1058
sS'low_fuses'
p1059
S'0xff'
p1060
sS'lock_bits'
p1061
S'0x0F'
p1062
sS'file'
p1063
S'ATmegaBOOT_168_ng.hex'
p1064
sS'path'
p1065
S'atmega'
p1066
sS'unlock_bits'
p1067
S'0x3F'
p1068
ssS'name'
p1069
S'Arduino NG or older w/ ATmega168'
p1070
sS'upload'
p1071
(dp1072
S'speed'
p1073
S'19200'
p1074
sS'maximum_size'
p1075
S'14336'
p1076
sS'protocol'
p1077
S'arduino'
p1078
ssaa(lp1079
S'atmega8'
p1080
a(dp1081
S'build'
p1082
(dp1083
S'core'
p1084
S'arduino'
p1085
sS'mcu'
p1086
S'atmega8'
p1087
sS'f_cpu'
p1088
S'16000000L'
p1089
sS'variant'
p1090
S'standard'
p1091
ssS'bootloader'
p1092
(dp1093
S'high_fuses'
p1094
S'0xca'
p1095
sS'low_fuses'
p1096
S'0xdf'
p1097
sS'lock_bits'
p1098
S'0x0F'
p1099
sS'file'
p1100
S'ATmegaBOOT-prod-firmware-2009-11-07.hex'
p1101
sS'path'
p1102
S'atmega8'
p1103
sS'unlock_bits'
p1104
S'0x3F'
p1105
ssS'name'
p1106
S'Arduino NG or older w/ ATmega8'
p1107
sS'upload'
p1108
(dp1109
S'speed'
p1110
S'19200'
p1111
sS'maximum_size'
p1112
S'7168'
p1113
sS'protocol'
p1114
S'arduino'
p1115
ssaa(lp1116
S'robotControl'
p1117
a(dp1118
S'build'
p1119
(dp1120
S'core'
p1121
S'robot'
p1122
sS'f_cpu'
p1123
S'16000000L'
p1124
sS'vid'
p1125
S'0x2341'
p1126
sS'pid'
p1127
S'0x8038'
p1128
sS'variant'
p1129
S'robot_control'
p1130
sS'mcu'
p1131
S'atmega32u4'
p1132
ssS'bootloader'
p1133
(dp1134
S'extended_fuses'
p1135
S'0xcb'
p1136
sS'high_fuses'
p1137
S'0xd8'
p1138
sS'low_fuses'
p1139
S'0xff'
p1140
sS'lock_bits'
p1141
S'0x2F'
p1142
sS'file'
p1143
S'Caterina-Robot-Control.hex'
p1144
sS'path'
p1145
S'caterina-Arduino_Robot'
p1146
sS'unlock_bits'
p1147
S'0x3F'
p1148
ssS'name'
p1149
S'Arduino Robot Control'
p1150
sS'upload'
p1151
(dp1152
S'speed'
p1153
S'57600'
p1154
sS'maximum_size'
p1155
S'28672'
p1156
sS'protocol'
p1157
S'avr109'
p1158
sS'disable_flushing'
p1159
S'true'
p1160
ssaa(lp1161
S'robotMotor'
p1162
a(dp1163
S'build'
p1164
(dp1165
S'core'
p1166
S'robot'
p1167
sS'f_cpu'
p1168
S'16000000L'
p1169
sS'vid'
p1170
S'0x2341'
p1171
sS'pid'
p1172
S'0x8039'
p1173
sS'variant'
p1174
S'robot_motor'
p1175
sS'mcu'
p1176
S'atmega32u4'
p1177
ssS'bootloader'
p1178
(dp1179
S'extended_fuses'
p1180
S'0xcb'
p1181
sS'high_fuses'
p1182
S'0xd8'
p1183
sS'low_fuses'
p1184
S'0xff'
p1185
sS'lock_bits'
p1186
S'0x2F'
p1187
sS'file'
p1188
S'Caterina-Robot-Motor.hex'
p1189
sS'path'
p1190
S'caterina-Arduino_Robot'
p1191
sS'unlock_bits'
p1192
S'0x3F'
p1193
ssS'name'
p1194
S'Arduino Robot Motor'
p1195
sS'upload'
p1196
(dp1197
S'speed'
p1198
S'57600'
p1199
sS'maximum_size'
p1200
S'28672'
p1201
sS'protocol'
p1202
S'avr109'
p1203
sS'disable_flushing'
p1204
S'true'
p1205
ssaatp1206
Rp1207
(dp1208
S'default'
p1209
S'uno'
p1210
sbtp1211
a(S'cxx'
p1212
S'/Applications/Arduino.app/Contents/Resources/Java/hardware/tools/avr/bin/avr-g++'
p1213
tp1214
a.