(lp0
(S'cppflags'
p1
ccopy_reg
_reconstructor
p2
(cino.utils
SpaceList
p3
c__builtin__
list
p4
(lp5
S'-mmcu=atmega2560'
p6
aS'-DF_CPU=16000000L'
p7
aS'-DARDUINO=105'
p8
aS'-I/Applications/Arduino.app/Contents/Resources/Java/hardware/arduino/cores/arduino'
p9
aS'-ffunction-sections'
p10
aS'-fdata-sections'
p11
aS'-g'
p12
aS'-Os'
p13
aS'-w'
p14
aS'-I/Applications/Arduino.app/Contents/Resources/Java/hardware/arduino/variants/mega'
p15
atp16
Rp17
tp18
a(S'version.txt'
p19
S'/Applications/Arduino.app/Contents/Resources/Java/lib/version.txt'
p20
tp21
a(S'used_libs'
p22
(lp23
S'/Applications/Arduino.app/Contents/Resources/Java/libraries/SD'
p24
aS'/Applications/Arduino.app/Contents/Resources/Java/hardware/arduino/cores/arduino'
p25
atp26
a(S'cc'
p27
S'/Applications/Arduino.app/Contents/Resources/Java/hardware/tools/avr/bin/avr-gcc'
p28
tp29
a(S'make'
p30
S'/Applications/Arduino.app/Contents/Resources/Java/hardware/tools/avr/bin/make'
p31
tp32
a(S'build_dir'
p33
S'.build/mega2560'
p34
tp35
a(S'arduino_core_dir'
p36
g25
tp37
a(S'boards.txt'
p38
S'/Applications/Arduino.app/Contents/Resources/Java/hardware/arduino/boards.txt'
p39
tp40
a(S'cxxflags'
p41
g2
(g3
g4
(lp42
S'-fno-exceptions'
p43
atp44
Rp45
tp46
a(S'arduino_variants_dir'
p47
S'/Applications/Arduino.app/Contents/Resources/Java/hardware/arduino/variants'
p48
tp49
a(S'deps'
p50
g2
(g3
g4
(lp51
S'.build/mega2560/src/dependencies.d'
p52
aS'.build/mega2560/arduino/dependencies.d'
p53
aS'.build/mega2560/SD/dependencies.d'
p54
aS'.build/mega2560/ITDB02_Touch/dependencies.d'
p55
aS'.build/mega2560/RTClib/dependencies.d'
p56
atp57
Rp58
tp59
a(S'ar'
p60
S'/Applications/Arduino.app/Contents/Resources/Java/hardware/tools/avr/bin/avr-ar'
p61
tp62
a(S'names'
p63
(dp64
S'cpp'
p65
S'%s.cpp'
p66
sS'obj'
p67
S'%s.o'
p68
sS'deps'
p69
S'%s.d'
p70
sS'lib'
p71
S'lib%s.a'
p72
stp73
a(S'cflags'
p74
g2
(g3
g4
(lp75
tp76
Rp77
tp78
a(S'ldflags'
p79
g2
(g3
g4
(lp80
g6
aS'-Wl,-Os'
p81
aS'-Wl,--gc-sections'
p82
atp83
Rp84
tp85
a(S'arduino_libraries_dir'
p86
S'/Applications/Arduino.app/Contents/Resources/Java/libraries'
p87
tp88
a(S'arduino_lib_version'
p89
g2
(cino.environment
Version
p90
c__builtin__
tuple
p91
(I1
I0
I5
tp92
tp93
Rp94
tp95
a(S'objcopy'
p96
S'/Applications/Arduino.app/Contents/Resources/Java/hardware/tools/avr/bin/avr-objcopy'
p97
tp98
a(S'board_models'
p99
cino.environment
BoardModels
p100
((lp101
(lp102
S'uno'
p103
a(dp104
S'bootloader'
p105
(dp106
S'extended_fuses'
p107
S'0x05'
p108
sS'high_fuses'
p109
S'0xde'
p110
sS'low_fuses'
p111
S'0xff'
p112
sS'lock_bits'
p113
S'0x0F'
p114
sS'file'
p115
S'optiboot_atmega328.hex'
p116
sS'path'
p117
S'optiboot'
p118
sS'unlock_bits'
p119
S'0x3F'
p120
ssS'upload'
p121
(dp122
S'speed'
p123
S'115200'
p124
sS'maximum_size'
p125
S'32256'
p126
sS'protocol'
p127
S'arduino'
p128
ssS'name'
p129
S'Arduino Uno'
p130
sS'build'
p131
(dp132
S'core'
p133
S'arduino'
p134
sS'mcu'
p135
S'atmega328p'
p136
sS'f_cpu'
p137
S'16000000L'
p138
sS'variant'
p139
S'standard'
p140
ssaa(lp141
S'atmega328'
p142
a(dp143
S'bootloader'
p144
(dp145
S'extended_fuses'
p146
S'0x05'
p147
sS'high_fuses'
p148
S'0xDA'
p149
sS'low_fuses'
p150
S'0xFF'
p151
sS'lock_bits'
p152
S'0x0F'
p153
sS'file'
p154
S'ATmegaBOOT_168_atmega328.hex'
p155
sS'path'
p156
S'atmega'
p157
sS'unlock_bits'
p158
S'0x3F'
p159
ssS'upload'
p160
(dp161
S'speed'
p162
S'57600'
p163
sS'maximum_size'
p164
S'30720'
p165
sS'protocol'
p166
S'arduino'
p167
ssS'name'
p168
S'Arduino Duemilanove w/ ATmega328'
p169
sS'build'
p170
(dp171
S'core'
p172
S'arduino'
p173
sS'mcu'
p174
S'atmega328p'
p175
sS'f_cpu'
p176
S'16000000L'
p177
sS'variant'
p178
S'standard'
p179
ssaa(lp180
S'diecimila'
p181
a(dp182
S'bootloader'
p183
(dp184
S'extended_fuses'
p185
S'0x00'
p186
sS'high_fuses'
p187
S'0xdd'
p188
sS'low_fuses'
p189
S'0xff'
p190
sS'lock_bits'
p191
S'0x0F'
p192
sS'file'
p193
S'ATmegaBOOT_168_diecimila.hex'
p194
sS'path'
p195
S'atmega'
p196
sS'unlock_bits'
p197
S'0x3F'
p198
ssS'upload'
p199
(dp200
S'speed'
p201
S'19200'
p202
sS'maximum_size'
p203
S'14336'
p204
sS'protocol'
p205
S'arduino'
p206
ssS'name'
p207
S'Arduino Diecimila or Duemilanove w/ ATmega168'
p208
sS'build'
p209
(dp210
S'core'
p211
S'arduino'
p212
sS'mcu'
p213
S'atmega168'
p214
sS'f_cpu'
p215
S'16000000L'
p216
sS'variant'
p217
S'standard'
p218
ssaa(lp219
S'nano328'
p220
a(dp221
S'bootloader'
p222
(dp223
S'extended_fuses'
p224
S'0x05'
p225
sS'high_fuses'
p226
S'0xDA'
p227
sS'low_fuses'
p228
S'0xFF'
p229
sS'lock_bits'
p230
S'0x0F'
p231
sS'file'
p232
S'ATmegaBOOT_168_atmega328.hex'
p233
sS'path'
p234
S'atmega'
p235
sS'unlock_bits'
p236
S'0x3F'
p237
ssS'upload'
p238
(dp239
S'speed'
p240
S'57600'
p241
sS'maximum_size'
p242
S'30720'
p243
sS'protocol'
p244
S'arduino'
p245
ssS'name'
p246
S'Arduino Nano w/ ATmega328'
p247
sS'build'
p248
(dp249
S'core'
p250
S'arduino'
p251
sS'mcu'
p252
S'atmega328p'
p253
sS'f_cpu'
p254
S'16000000L'
p255
sS'variant'
p256
S'eightanaloginputs'
p257
ssaa(lp258
S'nano'
p259
a(dp260
S'bootloader'
p261
(dp262
S'extended_fuses'
p263
S'0x00'
p264
sS'high_fuses'
p265
S'0xdd'
p266
sS'low_fuses'
p267
S'0xff'
p268
sS'lock_bits'
p269
S'0x0F'
p270
sS'file'
p271
S'ATmegaBOOT_168_diecimila.hex'
p272
sS'path'
p273
S'atmega'
p274
sS'unlock_bits'
p275
S'0x3F'
p276
ssS'upload'
p277
(dp278
S'speed'
p279
S'19200'
p280
sS'maximum_size'
p281
S'14336'
p282
sS'protocol'
p283
S'arduino'
p284
ssS'name'
p285
S'Arduino Nano w/ ATmega168'
p286
sS'build'
p287
(dp288
S'core'
p289
S'arduino'
p290
sS'mcu'
p291
S'atmega168'
p292
sS'f_cpu'
p293
S'16000000L'
p294
sS'variant'
p295
S'eightanaloginputs'
p296
ssaa(lp297
S'mega2560'
p298
a(dp299
S'bootloader'
p300
(dp301
S'extended_fuses'
p302
S'0xFD'
p303
sS'high_fuses'
p304
S'0xD8'
p305
sS'low_fuses'
p306
S'0xFF'
p307
sS'lock_bits'
p308
S'0x0F'
p309
sS'file'
p310
S'stk500boot_v2_mega2560.hex'
p311
sS'path'
p312
S'stk500v2'
p313
sS'unlock_bits'
p314
S'0x3F'
p315
ssS'upload'
p316
(dp317
S'speed'
p318
S'115200'
p319
sS'maximum_size'
p320
S'258048'
p321
sS'protocol'
p322
S'wiring'
p323
ssS'name'
p324
S'Arduino Mega 2560 or Mega ADK'
p325
sS'build'
p326
(dp327
S'core'
p328
S'arduino'
p329
sS'mcu'
p330
S'atmega2560'
p331
sS'f_cpu'
p332
S'16000000L'
p333
sS'variant'
p334
S'mega'
p335
ssaa(lp336
S'mega'
p337
a(dp338
S'bootloader'
p339
(dp340
S'extended_fuses'
p341
S'0xF5'
p342
sS'high_fuses'
p343
S'0xDA'
p344
sS'low_fuses'
p345
S'0xFF'
p346
sS'lock_bits'
p347
S'0x0F'
p348
sS'file'
p349
S'ATmegaBOOT_168_atmega1280.hex'
p350
sS'path'
p351
S'atmega'
p352
sS'unlock_bits'
p353
S'0x3F'
p354
ssS'upload'
p355
(dp356
S'speed'
p357
S'57600'
p358
sS'maximum_size'
p359
S'126976'
p360
sS'protocol'
p361
S'arduino'
p362
ssS'name'
p363
S'Arduino Mega (ATmega1280)'
p364
sS'build'
p365
(dp366
S'core'
p367
S'arduino'
p368
sS'mcu'
p369
S'atmega1280'
p370
sS'f_cpu'
p371
S'16000000L'
p372
sS'variant'
p373
S'mega'
p374
ssaa(lp375
S'leonardo'
p376
a(dp377
S'bootloader'
p378
(dp379
S'extended_fuses'
p380
S'0xcb'
p381
sS'high_fuses'
p382
S'0xd8'
p383
sS'low_fuses'
p384
S'0xff'
p385
sS'lock_bits'
p386
S'0x2F'
p387
sS'file'
p388
S'Caterina-Leonardo.hex'
p389
sS'path'
p390
S'caterina'
p391
sS'unlock_bits'
p392
S'0x3F'
p393
ssS'upload'
p394
(dp395
S'speed'
p396
S'57600'
p397
sS'maximum_size'
p398
S'28672'
p399
sS'protocol'
p400
S'avr109'
p401
sS'disable_flushing'
p402
S'true'
p403
ssS'name'
p404
S'Arduino Leonardo'
p405
sS'build'
p406
(dp407
S'core'
p408
S'arduino'
p409
sS'f_cpu'
p410
S'16000000L'
p411
sS'vid'
p412
S'0x2341'
p413
sS'pid'
p414
S'0x8036'
p415
sS'variant'
p416
S'leonardo'
p417
sS'mcu'
p418
S'atmega32u4'
p419
ssaa(lp420
S'esplora'
p421
a(dp422
S'bootloader'
p423
(dp424
S'extended_fuses'
p425
S'0xcb'
p426
sS'high_fuses'
p427
S'0xd8'
p428
sS'low_fuses'
p429
S'0xff'
p430
sS'lock_bits'
p431
S'0x2F'
p432
sS'file'
p433
S'Caterina-Esplora.hex'
p434
sS'path'
p435
S'caterina'
p436
sS'unlock_bits'
p437
S'0x3F'
p438
ssS'upload'
p439
(dp440
S'speed'
p441
S'57600'
p442
sS'maximum_size'
p443
S'28672'
p444
sS'protocol'
p445
S'avr109'
p446
sS'disable_flushing'
p447
S'true'
p448
ssS'name'
p449
S'Arduino Esplora'
p450
sS'build'
p451
(dp452
S'core'
p453
S'arduino'
p454
sS'f_cpu'
p455
S'16000000L'
p456
sS'vid'
p457
S'0x2341'
p458
sS'pid'
p459
S'0x803C'
p460
sS'variant'
p461
S'leonardo'
p462
sS'mcu'
p463
S'atmega32u4'
p464
ssaa(lp465
S'micro'
p466
a(dp467
S'bootloader'
p468
(dp469
S'extended_fuses'
p470
S'0xcb'
p471
sS'high_fuses'
p472
S'0xd8'
p473
sS'low_fuses'
p474
S'0xff'
p475
sS'lock_bits'
p476
S'0x2F'
p477
sS'file'
p478
S'Caterina-Micro.hex'
p479
sS'path'
p480
S'caterina'
p481
sS'unlock_bits'
p482
S'0x3F'
p483
ssS'upload'
p484
(dp485
S'speed'
p486
S'57600'
p487
sS'maximum_size'
p488
S'28672'
p489
sS'protocol'
p490
S'avr109'
p491
sS'disable_flushing'
p492
S'true'
p493
ssS'name'
p494
S'Arduino Micro'
p495
sS'build'
p496
(dp497
S'core'
p498
S'arduino'
p499
sS'f_cpu'
p500
S'16000000L'
p501
sS'vid'
p502
S'0x2341'
p503
sS'pid'
p504
S'0x8037'
p505
sS'variant'
p506
S'micro'
p507
sS'mcu'
p508
S'atmega32u4'
p509
ssaa(lp510
S'mini328'
p511
a(dp512
S'bootloader'
p513
(dp514
S'extended_fuses'
p515
S'0x05'
p516
sS'high_fuses'
p517
S'0xd8'
p518
sS'low_fuses'
p519
S'0xff'
p520
sS'lock_bits'
p521
S'0x0F'
p522
sS'file'
p523
S'optiboot_atmega328-Mini.hex'
p524
sS'path'
p525
S'optiboot'
p526
sS'unlock_bits'
p527
S'0x3F'
p528
ssS'upload'
p529
(dp530
S'speed'
p531
S'115200'
p532
sS'maximum_size'
p533
S'28672'
p534
sS'protocol'
p535
S'arduino'
p536
ssS'name'
p537
S'Arduino Mini w/ ATmega328'
p538
sS'build'
p539
(dp540
S'core'
p541
S'arduino'
p542
sS'mcu'
p543
S'atmega328p'
p544
sS'f_cpu'
p545
S'16000000L'
p546
sS'variant'
p547
S'eightanaloginputs'
p548
ssaa(lp549
S'mini'
p550
a(dp551
S'bootloader'
p552
(dp553
S'extended_fuses'
p554
S'0x00'
p555
sS'high_fuses'
p556
S'0xdd'
p557
sS'low_fuses'
p558
S'0xff'
p559
sS'lock_bits'
p560
S'0x0F'
p561
sS'file'
p562
S'ATmegaBOOT_168_ng.hex'
p563
sS'path'
p564
S'atmega'
p565
sS'unlock_bits'
p566
S'0x3F'
p567
ssS'upload'
p568
(dp569
S'speed'
p570
S'19200'
p571
sS'maximum_size'
p572
S'14336'
p573
sS'protocol'
p574
S'arduino'
p575
ssS'name'
p576
S'Arduino Mini w/ ATmega168'
p577
sS'build'
p578
(dp579
S'core'
p580
S'arduino'
p581
sS'mcu'
p582
S'atmega168'
p583
sS'f_cpu'
p584
S'16000000L'
p585
sS'variant'
p586
S'eightanaloginputs'
p587
ssaa(lp588
S'ethernet'
p589
a(dp590
S'bootloader'
p591
(dp592
S'extended_fuses'
p593
S'0x05'
p594
sS'high_fuses'
p595
S'0xde'
p596
sS'low_fuses'
p597
S'0xff'
p598
sS'lock_bits'
p599
S'0x0F'
p600
sS'file'
p601
S'optiboot_atmega328.hex'
p602
sS'path'
p603
S'optiboot'
p604
sS'unlock_bits'
p605
S'0x3F'
p606
ssS'upload'
p607
(dp608
S'speed'
p609
S'115200'
p610
sS'maximum_size'
p611
S'32256'
p612
sS'protocol'
p613
S'arduino'
p614
ssS'name'
p615
S'Arduino Ethernet'
p616
sS'build'
p617
(dp618
S'f_cpu'
p619
S'16000000L'
p620
sS'mcu'
p621
S'atmega328p'
p622
sS'variant'
p623
S'standard'
p624
sS'core'
p625
S'arduino'
p626
ssaa(lp627
S'fio'
p628
a(dp629
S'bootloader'
p630
(dp631
S'extended_fuses'
p632
S'0x05'
p633
sS'high_fuses'
p634
S'0xDA'
p635
sS'low_fuses'
p636
S'0xFF'
p637
sS'lock_bits'
p638
S'0x0F'
p639
sS'file'
p640
S'ATmegaBOOT_168_atmega328_pro_8MHz.hex'
p641
sS'path'
p642
S'arduino:atmega'
p643
sS'unlock_bits'
p644
S'0x3F'
p645
ssS'upload'
p646
(dp647
S'speed'
p648
S'57600'
p649
sS'maximum_size'
p650
S'30720'
p651
sS'protocol'
p652
S'arduino'
p653
ssS'name'
p654
S'Arduino Fio'
p655
sS'build'
p656
(dp657
S'core'
p658
S'arduino'
p659
sS'mcu'
p660
S'atmega328p'
p661
sS'f_cpu'
p662
S'8000000L'
p663
sS'variant'
p664
S'eightanaloginputs'
p665
ssaa(lp666
S'bt328'
p667
a(dp668
S'bootloader'
p669
(dp670
S'extended_fuses'
p671
S'0x05'
p672
sS'high_fuses'
p673
S'0xd8'
p674
sS'low_fuses'
p675
S'0xff'
p676
sS'lock_bits'
p677
S'0x0F'
p678
sS'file'
p679
S'ATmegaBOOT_168_atmega328_bt.hex'
p680
sS'path'
p681
S'bt'
p682
sS'unlock_bits'
p683
S'0x3F'
p684
ssS'upload'
p685
(dp686
S'speed'
p687
S'19200'
p688
sS'maximum_size'
p689
S'28672'
p690
sS'protocol'
p691
S'arduino'
p692
sS'disable_flushing'
p693
S'true'
p694
ssS'name'
p695
S'Arduino BT w/ ATmega328'
p696
sS'build'
p697
(dp698
S'core'
p699
S'arduino'
p700
sS'mcu'
p701
S'atmega328p'
p702
sS'f_cpu'
p703
S'16000000L'
p704
sS'variant'
p705
S'eightanaloginputs'
p706
ssaa(lp707
S'bt'
p708
a(dp709
S'bootloader'
p710
(dp711
S'extended_fuses'
p712
S'0x00'
p713
sS'high_fuses'
p714
S'0xdd'
p715
sS'low_fuses'
p716
S'0xff'
p717
sS'lock_bits'
p718
S'0x0F'
p719
sS'file'
p720
S'ATmegaBOOT_168.hex'
p721
sS'path'
p722
S'bt'
p723
sS'unlock_bits'
p724
S'0x3F'
p725
ssS'upload'
p726
(dp727
S'speed'
p728
S'19200'
p729
sS'maximum_size'
p730
S'14336'
p731
sS'protocol'
p732
S'arduino'
p733
sS'disable_flushing'
p734
S'true'
p735
ssS'name'
p736
S'Arduino BT w/ ATmega168'
p737
sS'build'
p738
(dp739
S'core'
p740
S'arduino'
p741
sS'mcu'
p742
S'atmega168'
p743
sS'f_cpu'
p744
S'16000000L'
p745
sS'variant'
p746
S'eightanaloginputs'
p747
ssaa(lp748
S'LilyPadUSB'
p749
a(dp750
S'bootloader'
p751
(dp752
S'extended_fuses'
p753
S'0xce'
p754
sS'high_fuses'
p755
S'0xd8'
p756
sS'low_fuses'
p757
S'0xff'
p758
sS'lock_bits'
p759
S'0x2F'
p760
sS'file'
p761
S'Caterina-LilyPadUSB.hex'
p762
sS'path'
p763
S'caterina-LilyPadUSB'
p764
sS'unlock_bits'
p765
S'0x3F'
p766
ssS'upload'
p767
(dp768
S'speed'
p769
S'57600'
p770
sS'maximum_size'
p771
S'28672'
p772
sS'protocol'
p773
S'avr109'
p774
sS'disable_flushing'
p775
S'true'
p776
ssS'name'
p777
S'LilyPad Arduino USB'
p778
sS'build'
p779
(dp780
S'core'
p781
S'arduino'
p782
sS'f_cpu'
p783
S'8000000L'
p784
sS'vid'
p785
S'0x1B4F'
p786
sS'pid'
p787
S'0x9208'
p788
sS'variant'
p789
S'leonardo'
p790
sS'mcu'
p791
S'atmega32u4'
p792
ssaa(lp793
S'lilypad328'
p794
a(dp795
S'bootloader'
p796
(dp797
S'extended_fuses'
p798
S'0x05'
p799
sS'high_fuses'
p800
S'0xDA'
p801
sS'low_fuses'
p802
S'0xFF'
p803
sS'lock_bits'
p804
S'0x0F'
p805
sS'file'
p806
S'ATmegaBOOT_168_atmega328_pro_8MHz.hex'
p807
sS'path'
p808
S'atmega'
p809
sS'unlock_bits'
p810
S'0x3F'
p811
ssS'upload'
p812
(dp813
S'speed'
p814
S'57600'
p815
sS'maximum_size'
p816
S'30720'
p817
sS'protocol'
p818
S'arduino'
p819
ssS'name'
p820
S'LilyPad Arduino w/ ATmega328'
p821
sS'build'
p822
(dp823
S'core'
p824
S'arduino'
p825
sS'mcu'
p826
S'atmega328p'
p827
sS'f_cpu'
p828
S'8000000L'
p829
sS'variant'
p830
S'standard'
p831
ssaa(lp832
S'lilypad'
p833
a(dp834
S'bootloader'
p835
(dp836
S'extended_fuses'
p837
S'0x00'
p838
sS'high_fuses'
p839
S'0xdd'
p840
sS'low_fuses'
p841
S'0xe2'
p842
sS'lock_bits'
p843
S'0x0F'
p844
sS'file'
p845
S'LilyPadBOOT_168.hex'
p846
sS'path'
p847
S'lilypad'
p848
sS'unlock_bits'
p849
S'0x3F'
p850
ssS'upload'
p851
(dp852
S'speed'
p853
S'19200'
p854
sS'maximum_size'
p855
S'14336'
p856
sS'protocol'
p857
S'arduino'
p858
ssS'name'
p859
S'LilyPad Arduino w/ ATmega168'
p860
sS'build'
p861
(dp862
S'core'
p863
S'arduino'
p864
sS'mcu'
p865
S'atmega168'
p866
sS'f_cpu'
p867
S'8000000L'
p868
sS'variant'
p869
S'standard'
p870
ssaa(lp871
S'pro5v328'
p872
a(dp873
S'bootloader'
p874
(dp875
S'extended_fuses'
p876
S'0x05'
p877
sS'high_fuses'
p878
S'0xDA'
p879
sS'low_fuses'
p880
S'0xFF'
p881
sS'lock_bits'
p882
S'0x0F'
p883
sS'file'
p884
S'ATmegaBOOT_168_atmega328.hex'
p885
sS'path'
p886
S'atmega'
p887
sS'unlock_bits'
p888
S'0x3F'
p889
ssS'upload'
p890
(dp891
S'speed'
p892
S'57600'
p893
sS'maximum_size'
p894
S'30720'
p895
sS'protocol'
p896
S'arduino'
p897
ssS'name'
p898
S'Arduino Pro or Pro Mini (5V, 16 MHz) w/ ATmega328'
p899
sS'build'
p900
(dp901
S'core'
p902
S'arduino'
p903
sS'mcu'
p904
S'atmega328p'
p905
sS'f_cpu'
p906
S'16000000L'
p907
sS'variant'
p908
S'standard'
p909
ssaa(lp910
S'pro5v'
p911
a(dp912
S'bootloader'
p913
(dp914
S'extended_fuses'
p915
S'0x00'
p916
sS'high_fuses'
p917
S'0xdd'
p918
sS'low_fuses'
p919
S'0xff'
p920
sS'lock_bits'
p921
S'0x0F'
p922
sS'file'
p923
S'ATmegaBOOT_168_diecimila.hex'
p924
sS'path'
p925
S'atmega'
p926
sS'unlock_bits'
p927
S'0x3F'
p928
ssS'upload'
p929
(dp930
S'speed'
p931
S'19200'
p932
sS'maximum_size'
p933
S'14336'
p934
sS'protocol'
p935
S'arduino'
p936
ssS'name'
p937
S'Arduino Pro or Pro Mini (5V, 16 MHz) w/ ATmega168'
p938
sS'build'
p939
(dp940
S'core'
p941
S'arduino'
p942
sS'mcu'
p943
S'atmega168'
p944
sS'f_cpu'
p945
S'16000000L'
p946
sS'variant'
p947
S'standard'
p948
ssaa(lp949
S'pro328'
p950
a(dp951
S'bootloader'
p952
(dp953
S'extended_fuses'
p954
S'0x05'
p955
sS'high_fuses'
p956
S'0xDA'
p957
sS'low_fuses'
p958
S'0xFF'
p959
sS'lock_bits'
p960
S'0x0F'
p961
sS'file'
p962
S'ATmegaBOOT_168_atmega328_pro_8MHz.hex'
p963
sS'path'
p964
S'atmega'
p965
sS'unlock_bits'
p966
S'0x3F'
p967
ssS'upload'
p968
(dp969
S'speed'
p970
S'57600'
p971
sS'maximum_size'
p972
S'30720'
p973
sS'protocol'
p974
S'arduino'
p975
ssS'name'
p976
S'Arduino Pro or Pro Mini (3.3V, 8 MHz) w/ ATmega328'
p977
sS'build'
p978
(dp979
S'core'
p980
S'arduino'
p981
sS'mcu'
p982
S'atmega328p'
p983
sS'f_cpu'
p984
S'8000000L'
p985
sS'variant'
p986
S'standard'
p987
ssaa(lp988
S'pro'
p989
a(dp990
S'bootloader'
p991
(dp992
S'extended_fuses'
p993
S'0x00'
p994
sS'high_fuses'
p995
S'0xdd'
p996
sS'low_fuses'
p997
S'0xc6'
p998
sS'lock_bits'
p999
S'0x0F'
p1000
sS'file'
p1001
S'ATmegaBOOT_168_pro_8MHz.hex'
p1002
sS'path'
p1003
S'atmega'
p1004
sS'unlock_bits'
p1005
S'0x3F'
p1006
ssS'upload'
p1007
(dp1008
S'speed'
p1009
S'19200'
p1010
sS'maximum_size'
p1011
S'14336'
p1012
sS'protocol'
p1013
S'arduino'
p1014
ssS'name'
p1015
S'Arduino Pro or Pro Mini (3.3V, 8 MHz) w/ ATmega168'
p1016
sS'build'
p1017
(dp1018
S'core'
p1019
S'arduino'
p1020
sS'mcu'
p1021
S'atmega168'
p1022
sS'f_cpu'
p1023
S'8000000L'
p1024
sS'variant'
p1025
S'standard'
p1026
ssaa(lp1027
S'atmega168'
p1028
a(dp1029
S'bootloader'
p1030
(dp1031
S'extended_fuses'
p1032
S'0x00'
p1033
sS'high_fuses'
p1034
S'0xdd'
p1035
sS'low_fuses'
p1036
S'0xff'
p1037
sS'lock_bits'
p1038
S'0x0F'
p1039
sS'file'
p1040
S'ATmegaBOOT_168_ng.hex'
p1041
sS'path'
p1042
S'atmega'
p1043
sS'unlock_bits'
p1044
S'0x3F'
p1045
ssS'upload'
p1046
(dp1047
S'speed'
p1048
S'19200'
p1049
sS'maximum_size'
p1050
S'14336'
p1051
sS'protocol'
p1052
S'arduino'
p1053
ssS'name'
p1054
S'Arduino NG or older w/ ATmega168'
p1055
sS'build'
p1056
(dp1057
S'core'
p1058
S'arduino'
p1059
sS'mcu'
p1060
S'atmega168'
p1061
sS'f_cpu'
p1062
S'16000000L'
p1063
sS'variant'
p1064
S'standard'
p1065
ssaa(lp1066
S'atmega8'
p1067
a(dp1068
S'bootloader'
p1069
(dp1070
S'high_fuses'
p1071
S'0xca'
p1072
sS'low_fuses'
p1073
S'0xdf'
p1074
sS'lock_bits'
p1075
S'0x0F'
p1076
sS'file'
p1077
S'ATmegaBOOT-prod-firmware-2009-11-07.hex'
p1078
sS'path'
p1079
S'atmega8'
p1080
sS'unlock_bits'
p1081
S'0x3F'
p1082
ssS'upload'
p1083
(dp1084
S'speed'
p1085
S'19200'
p1086
sS'maximum_size'
p1087
S'7168'
p1088
sS'protocol'
p1089
S'arduino'
p1090
ssS'name'
p1091
S'Arduino NG or older w/ ATmega8'
p1092
sS'build'
p1093
(dp1094
S'core'
p1095
S'arduino'
p1096
sS'mcu'
p1097
S'atmega8'
p1098
sS'f_cpu'
p1099
S'16000000L'
p1100
sS'variant'
p1101
S'standard'
p1102
ssaa(lp1103
S'robotControl'
p1104
a(dp1105
S'bootloader'
p1106
(dp1107
S'extended_fuses'
p1108
S'0xcb'
p1109
sS'high_fuses'
p1110
S'0xd8'
p1111
sS'low_fuses'
p1112
S'0xff'
p1113
sS'lock_bits'
p1114
S'0x2F'
p1115
sS'file'
p1116
S'Caterina-Robot-Control.hex'
p1117
sS'path'
p1118
S'caterina-Arduino_Robot'
p1119
sS'unlock_bits'
p1120
S'0x3F'
p1121
ssS'upload'
p1122
(dp1123
S'speed'
p1124
S'57600'
p1125
sS'maximum_size'
p1126
S'28672'
p1127
sS'protocol'
p1128
S'avr109'
p1129
sS'disable_flushing'
p1130
S'true'
p1131
ssS'name'
p1132
S'Arduino Robot Control'
p1133
sS'build'
p1134
(dp1135
S'core'
p1136
S'robot'
p1137
sS'f_cpu'
p1138
S'16000000L'
p1139
sS'vid'
p1140
S'0x2341'
p1141
sS'pid'
p1142
S'0x8038'
p1143
sS'variant'
p1144
S'robot_control'
p1145
sS'mcu'
p1146
S'atmega32u4'
p1147
ssaa(lp1148
S'robotMotor'
p1149
a(dp1150
S'bootloader'
p1151
(dp1152
S'extended_fuses'
p1153
S'0xcb'
p1154
sS'high_fuses'
p1155
S'0xd8'
p1156
sS'low_fuses'
p1157
S'0xff'
p1158
sS'lock_bits'
p1159
S'0x2F'
p1160
sS'file'
p1161
S'Caterina-Robot-Motor.hex'
p1162
sS'path'
p1163
S'caterina-Arduino_Robot'
p1164
sS'unlock_bits'
p1165
S'0x3F'
p1166
ssS'upload'
p1167
(dp1168
S'speed'
p1169
S'57600'
p1170
sS'maximum_size'
p1171
S'28672'
p1172
sS'protocol'
p1173
S'avr109'
p1174
sS'disable_flushing'
p1175
S'true'
p1176
ssS'name'
p1177
S'Arduino Robot Motor'
p1178
sS'build'
p1179
(dp1180
S'core'
p1181
S'robot'
p1182
sS'f_cpu'
p1183
S'16000000L'
p1184
sS'vid'
p1185
S'0x2341'
p1186
sS'pid'
p1187
S'0x8039'
p1188
sS'variant'
p1189
S'robot_motor'
p1190
sS'mcu'
p1191
S'atmega32u4'
p1192
ssaatp1193
Rp1194
(dp1195
S'default'
p1196
S'uno'
p1197
sbtp1198
a(S'cxx'
p1199
S'/Applications/Arduino.app/Contents/Resources/Java/hardware/tools/avr/bin/avr-g++'
p1200
tp1201
a.